
CMSIS_SunRiseClock.elf:     file format elf32-littlearm

Sections:
Idx Name          Size      VMA       LMA       File off  Algn
  0 .isr_vector   000000c0  08000000  08000000  00001000  2**0
                  CONTENTS, ALLOC, LOAD, READONLY, DATA
  1 .text         00003c40  080000c0  080000c0  000010c0  2**2
                  CONTENTS, ALLOC, LOAD, READONLY, CODE
  2 .rodata       00000108  08003d00  08003d00  00004d00  2**2
                  CONTENTS, ALLOC, LOAD, READONLY, DATA
  3 .ARM.extab    00000000  08003e08  08003e08  00005188  2**0
                  CONTENTS
  4 .ARM          00000000  08003e08  08003e08  00005188  2**0
                  CONTENTS
  5 .preinit_array 00000000  08003e08  08003e08  00005188  2**0
                  CONTENTS, ALLOC, LOAD, DATA
  6 .init_array   00000004  08003e08  08003e08  00004e08  2**2
                  CONTENTS, ALLOC, LOAD, DATA
  7 .fini_array   00000004  08003e0c  08003e0c  00004e0c  2**2
                  CONTENTS, ALLOC, LOAD, DATA
  8 .data         00000188  20000000  08003e10  00005000  2**2
                  CONTENTS, ALLOC, LOAD, DATA
  9 .bss          00000190  20000188  08003f98  00005188  2**2
                  ALLOC
 10 ._user_heap_stack 00000400  20000318  08003f98  00005318  2**0
                  ALLOC
 11 .ARM.attributes 00000028  00000000  00000000  00005188  2**0
                  CONTENTS, READONLY
 12 .debug_info   00001f8e  00000000  00000000  000051b0  2**0
                  CONTENTS, READONLY, DEBUGGING, OCTETS
 13 .debug_abbrev 00000664  00000000  00000000  0000713e  2**0
                  CONTENTS, READONLY, DEBUGGING, OCTETS
 14 .debug_loclists 00000914  00000000  00000000  000077a2  2**0
                  CONTENTS, READONLY, DEBUGGING, OCTETS
 15 .debug_aranges 00000160  00000000  00000000  000080b8  2**3
                  CONTENTS, READONLY, DEBUGGING, OCTETS
 16 .debug_rnglists 00000283  00000000  00000000  00008218  2**0
                  CONTENTS, READONLY, DEBUGGING, OCTETS
 17 .debug_macro  00008f92  00000000  00000000  0000849b  2**0
                  CONTENTS, READONLY, DEBUGGING, OCTETS
 18 .debug_line   00002364  00000000  00000000  0001142d  2**0
                  CONTENTS, READONLY, DEBUGGING, OCTETS
 19 .debug_str    0003048d  00000000  00000000  00013791  2**0
                  CONTENTS, READONLY, DEBUGGING, OCTETS
 20 .comment      00000043  00000000  00000000  00043c1e  2**0
                  CONTENTS, READONLY
 21 .debug_frame  00000974  00000000  00000000  00043c64  2**2
                  CONTENTS, READONLY, DEBUGGING, OCTETS
 22 .debug_line_str 00000070  00000000  00000000  000445d8  2**0
                  CONTENTS, READONLY, DEBUGGING, OCTETS

Disassembly of section .text:

080000c0 <__do_global_dtors_aux>:
 80000c0:	b510      	push	{r4, lr}
 80000c2:	4c06      	ldr	r4, [pc, #24]	@ (80000dc <__do_global_dtors_aux+0x1c>)
 80000c4:	7823      	ldrb	r3, [r4, #0]
 80000c6:	2b00      	cmp	r3, #0
 80000c8:	d107      	bne.n	80000da <__do_global_dtors_aux+0x1a>
 80000ca:	4b05      	ldr	r3, [pc, #20]	@ (80000e0 <__do_global_dtors_aux+0x20>)
 80000cc:	2b00      	cmp	r3, #0
 80000ce:	d002      	beq.n	80000d6 <__do_global_dtors_aux+0x16>
 80000d0:	4804      	ldr	r0, [pc, #16]	@ (80000e4 <__do_global_dtors_aux+0x24>)
 80000d2:	e000      	b.n	80000d6 <__do_global_dtors_aux+0x16>
 80000d4:	bf00      	nop
 80000d6:	2301      	movs	r3, #1
 80000d8:	7023      	strb	r3, [r4, #0]
 80000da:	bd10      	pop	{r4, pc}
 80000dc:	20000188 	.word	0x20000188
 80000e0:	00000000 	.word	0x00000000
 80000e4:	08003ce8 	.word	0x08003ce8

080000e8 <frame_dummy>:
 80000e8:	4b04      	ldr	r3, [pc, #16]	@ (80000fc <frame_dummy+0x14>)
 80000ea:	b510      	push	{r4, lr}
 80000ec:	2b00      	cmp	r3, #0
 80000ee:	d003      	beq.n	80000f8 <frame_dummy+0x10>
 80000f0:	4903      	ldr	r1, [pc, #12]	@ (8000100 <frame_dummy+0x18>)
 80000f2:	4804      	ldr	r0, [pc, #16]	@ (8000104 <frame_dummy+0x1c>)
 80000f4:	e000      	b.n	80000f8 <frame_dummy+0x10>
 80000f6:	bf00      	nop
 80000f8:	bd10      	pop	{r4, pc}
 80000fa:	46c0      	nop			@ (mov r8, r8)
 80000fc:	00000000 	.word	0x00000000
 8000100:	2000018c 	.word	0x2000018c
 8000104:	08003ce8 	.word	0x08003ce8

08000108 <__udivsi3>:
 8000108:	2200      	movs	r2, #0
 800010a:	0843      	lsrs	r3, r0, #1
 800010c:	428b      	cmp	r3, r1
 800010e:	d374      	bcc.n	80001fa <__udivsi3+0xf2>
 8000110:	0903      	lsrs	r3, r0, #4
 8000112:	428b      	cmp	r3, r1
 8000114:	d35f      	bcc.n	80001d6 <__udivsi3+0xce>
 8000116:	0a03      	lsrs	r3, r0, #8
 8000118:	428b      	cmp	r3, r1
 800011a:	d344      	bcc.n	80001a6 <__udivsi3+0x9e>
 800011c:	0b03      	lsrs	r3, r0, #12
 800011e:	428b      	cmp	r3, r1
 8000120:	d328      	bcc.n	8000174 <__udivsi3+0x6c>
 8000122:	0c03      	lsrs	r3, r0, #16
 8000124:	428b      	cmp	r3, r1
 8000126:	d30d      	bcc.n	8000144 <__udivsi3+0x3c>
 8000128:	22ff      	movs	r2, #255	@ 0xff
 800012a:	0209      	lsls	r1, r1, #8
 800012c:	ba12      	rev	r2, r2
 800012e:	0c03      	lsrs	r3, r0, #16
 8000130:	428b      	cmp	r3, r1
 8000132:	d302      	bcc.n	800013a <__udivsi3+0x32>
 8000134:	1212      	asrs	r2, r2, #8
 8000136:	0209      	lsls	r1, r1, #8
 8000138:	d065      	beq.n	8000206 <__udivsi3+0xfe>
 800013a:	0b03      	lsrs	r3, r0, #12
 800013c:	428b      	cmp	r3, r1
 800013e:	d319      	bcc.n	8000174 <__udivsi3+0x6c>
 8000140:	e000      	b.n	8000144 <__udivsi3+0x3c>
 8000142:	0a09      	lsrs	r1, r1, #8
 8000144:	0bc3      	lsrs	r3, r0, #15
 8000146:	428b      	cmp	r3, r1
 8000148:	d301      	bcc.n	800014e <__udivsi3+0x46>
 800014a:	03cb      	lsls	r3, r1, #15
 800014c:	1ac0      	subs	r0, r0, r3
 800014e:	4152      	adcs	r2, r2
 8000150:	0b83      	lsrs	r3, r0, #14
 8000152:	428b      	cmp	r3, r1
 8000154:	d301      	bcc.n	800015a <__udivsi3+0x52>
 8000156:	038b      	lsls	r3, r1, #14
 8000158:	1ac0      	subs	r0, r0, r3
 800015a:	4152      	adcs	r2, r2
 800015c:	0b43      	lsrs	r3, r0, #13
 800015e:	428b      	cmp	r3, r1
 8000160:	d301      	bcc.n	8000166 <__udivsi3+0x5e>
 8000162:	034b      	lsls	r3, r1, #13
 8000164:	1ac0      	subs	r0, r0, r3
 8000166:	4152      	adcs	r2, r2
 8000168:	0b03      	lsrs	r3, r0, #12
 800016a:	428b      	cmp	r3, r1
 800016c:	d301      	bcc.n	8000172 <__udivsi3+0x6a>
 800016e:	030b      	lsls	r3, r1, #12
 8000170:	1ac0      	subs	r0, r0, r3
 8000172:	4152      	adcs	r2, r2
 8000174:	0ac3      	lsrs	r3, r0, #11
 8000176:	428b      	cmp	r3, r1
 8000178:	d301      	bcc.n	800017e <__udivsi3+0x76>
 800017a:	02cb      	lsls	r3, r1, #11
 800017c:	1ac0      	subs	r0, r0, r3
 800017e:	4152      	adcs	r2, r2
 8000180:	0a83      	lsrs	r3, r0, #10
 8000182:	428b      	cmp	r3, r1
 8000184:	d301      	bcc.n	800018a <__udivsi3+0x82>
 8000186:	028b      	lsls	r3, r1, #10
 8000188:	1ac0      	subs	r0, r0, r3
 800018a:	4152      	adcs	r2, r2
 800018c:	0a43      	lsrs	r3, r0, #9
 800018e:	428b      	cmp	r3, r1
 8000190:	d301      	bcc.n	8000196 <__udivsi3+0x8e>
 8000192:	024b      	lsls	r3, r1, #9
 8000194:	1ac0      	subs	r0, r0, r3
 8000196:	4152      	adcs	r2, r2
 8000198:	0a03      	lsrs	r3, r0, #8
 800019a:	428b      	cmp	r3, r1
 800019c:	d301      	bcc.n	80001a2 <__udivsi3+0x9a>
 800019e:	020b      	lsls	r3, r1, #8
 80001a0:	1ac0      	subs	r0, r0, r3
 80001a2:	4152      	adcs	r2, r2
 80001a4:	d2cd      	bcs.n	8000142 <__udivsi3+0x3a>
 80001a6:	09c3      	lsrs	r3, r0, #7
 80001a8:	428b      	cmp	r3, r1
 80001aa:	d301      	bcc.n	80001b0 <__udivsi3+0xa8>
 80001ac:	01cb      	lsls	r3, r1, #7
 80001ae:	1ac0      	subs	r0, r0, r3
 80001b0:	4152      	adcs	r2, r2
 80001b2:	0983      	lsrs	r3, r0, #6
 80001b4:	428b      	cmp	r3, r1
 80001b6:	d301      	bcc.n	80001bc <__udivsi3+0xb4>
 80001b8:	018b      	lsls	r3, r1, #6
 80001ba:	1ac0      	subs	r0, r0, r3
 80001bc:	4152      	adcs	r2, r2
 80001be:	0943      	lsrs	r3, r0, #5
 80001c0:	428b      	cmp	r3, r1
 80001c2:	d301      	bcc.n	80001c8 <__udivsi3+0xc0>
 80001c4:	014b      	lsls	r3, r1, #5
 80001c6:	1ac0      	subs	r0, r0, r3
 80001c8:	4152      	adcs	r2, r2
 80001ca:	0903      	lsrs	r3, r0, #4
 80001cc:	428b      	cmp	r3, r1
 80001ce:	d301      	bcc.n	80001d4 <__udivsi3+0xcc>
 80001d0:	010b      	lsls	r3, r1, #4
 80001d2:	1ac0      	subs	r0, r0, r3
 80001d4:	4152      	adcs	r2, r2
 80001d6:	08c3      	lsrs	r3, r0, #3
 80001d8:	428b      	cmp	r3, r1
 80001da:	d301      	bcc.n	80001e0 <__udivsi3+0xd8>
 80001dc:	00cb      	lsls	r3, r1, #3
 80001de:	1ac0      	subs	r0, r0, r3
 80001e0:	4152      	adcs	r2, r2
 80001e2:	0883      	lsrs	r3, r0, #2
 80001e4:	428b      	cmp	r3, r1
 80001e6:	d301      	bcc.n	80001ec <__udivsi3+0xe4>
 80001e8:	008b      	lsls	r3, r1, #2
 80001ea:	1ac0      	subs	r0, r0, r3
 80001ec:	4152      	adcs	r2, r2
 80001ee:	0843      	lsrs	r3, r0, #1
 80001f0:	428b      	cmp	r3, r1
 80001f2:	d301      	bcc.n	80001f8 <__udivsi3+0xf0>
 80001f4:	004b      	lsls	r3, r1, #1
 80001f6:	1ac0      	subs	r0, r0, r3
 80001f8:	4152      	adcs	r2, r2
 80001fa:	1a41      	subs	r1, r0, r1
 80001fc:	d200      	bcs.n	8000200 <__udivsi3+0xf8>
 80001fe:	4601      	mov	r1, r0
 8000200:	4152      	adcs	r2, r2
 8000202:	4610      	mov	r0, r2
 8000204:	4770      	bx	lr
 8000206:	e7ff      	b.n	8000208 <__udivsi3+0x100>
 8000208:	b501      	push	{r0, lr}
 800020a:	2000      	movs	r0, #0
 800020c:	f000 f8f0 	bl	80003f0 <__aeabi_idiv0>
 8000210:	bd02      	pop	{r1, pc}
 8000212:	46c0      	nop			@ (mov r8, r8)

08000214 <__aeabi_uidivmod>:
 8000214:	2900      	cmp	r1, #0
 8000216:	d0f7      	beq.n	8000208 <__udivsi3+0x100>
 8000218:	e776      	b.n	8000108 <__udivsi3>
 800021a:	4770      	bx	lr

0800021c <__divsi3>:
 800021c:	4603      	mov	r3, r0
 800021e:	430b      	orrs	r3, r1
 8000220:	d47f      	bmi.n	8000322 <__divsi3+0x106>
 8000222:	2200      	movs	r2, #0
 8000224:	0843      	lsrs	r3, r0, #1
 8000226:	428b      	cmp	r3, r1
 8000228:	d374      	bcc.n	8000314 <__divsi3+0xf8>
 800022a:	0903      	lsrs	r3, r0, #4
 800022c:	428b      	cmp	r3, r1
 800022e:	d35f      	bcc.n	80002f0 <__divsi3+0xd4>
 8000230:	0a03      	lsrs	r3, r0, #8
 8000232:	428b      	cmp	r3, r1
 8000234:	d344      	bcc.n	80002c0 <__divsi3+0xa4>
 8000236:	0b03      	lsrs	r3, r0, #12
 8000238:	428b      	cmp	r3, r1
 800023a:	d328      	bcc.n	800028e <__divsi3+0x72>
 800023c:	0c03      	lsrs	r3, r0, #16
 800023e:	428b      	cmp	r3, r1
 8000240:	d30d      	bcc.n	800025e <__divsi3+0x42>
 8000242:	22ff      	movs	r2, #255	@ 0xff
 8000244:	0209      	lsls	r1, r1, #8
 8000246:	ba12      	rev	r2, r2
 8000248:	0c03      	lsrs	r3, r0, #16
 800024a:	428b      	cmp	r3, r1
 800024c:	d302      	bcc.n	8000254 <__divsi3+0x38>
 800024e:	1212      	asrs	r2, r2, #8
 8000250:	0209      	lsls	r1, r1, #8
 8000252:	d065      	beq.n	8000320 <__divsi3+0x104>
 8000254:	0b03      	lsrs	r3, r0, #12
 8000256:	428b      	cmp	r3, r1
 8000258:	d319      	bcc.n	800028e <__divsi3+0x72>
 800025a:	e000      	b.n	800025e <__divsi3+0x42>
 800025c:	0a09      	lsrs	r1, r1, #8
 800025e:	0bc3      	lsrs	r3, r0, #15
 8000260:	428b      	cmp	r3, r1
 8000262:	d301      	bcc.n	8000268 <__divsi3+0x4c>
 8000264:	03cb      	lsls	r3, r1, #15
 8000266:	1ac0      	subs	r0, r0, r3
 8000268:	4152      	adcs	r2, r2
 800026a:	0b83      	lsrs	r3, r0, #14
 800026c:	428b      	cmp	r3, r1
 800026e:	d301      	bcc.n	8000274 <__divsi3+0x58>
 8000270:	038b      	lsls	r3, r1, #14
 8000272:	1ac0      	subs	r0, r0, r3
 8000274:	4152      	adcs	r2, r2
 8000276:	0b43      	lsrs	r3, r0, #13
 8000278:	428b      	cmp	r3, r1
 800027a:	d301      	bcc.n	8000280 <__divsi3+0x64>
 800027c:	034b      	lsls	r3, r1, #13
 800027e:	1ac0      	subs	r0, r0, r3
 8000280:	4152      	adcs	r2, r2
 8000282:	0b03      	lsrs	r3, r0, #12
 8000284:	428b      	cmp	r3, r1
 8000286:	d301      	bcc.n	800028c <__divsi3+0x70>
 8000288:	030b      	lsls	r3, r1, #12
 800028a:	1ac0      	subs	r0, r0, r3
 800028c:	4152      	adcs	r2, r2
 800028e:	0ac3      	lsrs	r3, r0, #11
 8000290:	428b      	cmp	r3, r1
 8000292:	d301      	bcc.n	8000298 <__divsi3+0x7c>
 8000294:	02cb      	lsls	r3, r1, #11
 8000296:	1ac0      	subs	r0, r0, r3
 8000298:	4152      	adcs	r2, r2
 800029a:	0a83      	lsrs	r3, r0, #10
 800029c:	428b      	cmp	r3, r1
 800029e:	d301      	bcc.n	80002a4 <__divsi3+0x88>
 80002a0:	028b      	lsls	r3, r1, #10
 80002a2:	1ac0      	subs	r0, r0, r3
 80002a4:	4152      	adcs	r2, r2
 80002a6:	0a43      	lsrs	r3, r0, #9
 80002a8:	428b      	cmp	r3, r1
 80002aa:	d301      	bcc.n	80002b0 <__divsi3+0x94>
 80002ac:	024b      	lsls	r3, r1, #9
 80002ae:	1ac0      	subs	r0, r0, r3
 80002b0:	4152      	adcs	r2, r2
 80002b2:	0a03      	lsrs	r3, r0, #8
 80002b4:	428b      	cmp	r3, r1
 80002b6:	d301      	bcc.n	80002bc <__divsi3+0xa0>
 80002b8:	020b      	lsls	r3, r1, #8
 80002ba:	1ac0      	subs	r0, r0, r3
 80002bc:	4152      	adcs	r2, r2
 80002be:	d2cd      	bcs.n	800025c <__divsi3+0x40>
 80002c0:	09c3      	lsrs	r3, r0, #7
 80002c2:	428b      	cmp	r3, r1
 80002c4:	d301      	bcc.n	80002ca <__divsi3+0xae>
 80002c6:	01cb      	lsls	r3, r1, #7
 80002c8:	1ac0      	subs	r0, r0, r3
 80002ca:	4152      	adcs	r2, r2
 80002cc:	0983      	lsrs	r3, r0, #6
 80002ce:	428b      	cmp	r3, r1
 80002d0:	d301      	bcc.n	80002d6 <__divsi3+0xba>
 80002d2:	018b      	lsls	r3, r1, #6
 80002d4:	1ac0      	subs	r0, r0, r3
 80002d6:	4152      	adcs	r2, r2
 80002d8:	0943      	lsrs	r3, r0, #5
 80002da:	428b      	cmp	r3, r1
 80002dc:	d301      	bcc.n	80002e2 <__divsi3+0xc6>
 80002de:	014b      	lsls	r3, r1, #5
 80002e0:	1ac0      	subs	r0, r0, r3
 80002e2:	4152      	adcs	r2, r2
 80002e4:	0903      	lsrs	r3, r0, #4
 80002e6:	428b      	cmp	r3, r1
 80002e8:	d301      	bcc.n	80002ee <__divsi3+0xd2>
 80002ea:	010b      	lsls	r3, r1, #4
 80002ec:	1ac0      	subs	r0, r0, r3
 80002ee:	4152      	adcs	r2, r2
 80002f0:	08c3      	lsrs	r3, r0, #3
 80002f2:	428b      	cmp	r3, r1
 80002f4:	d301      	bcc.n	80002fa <__divsi3+0xde>
 80002f6:	00cb      	lsls	r3, r1, #3
 80002f8:	1ac0      	subs	r0, r0, r3
 80002fa:	4152      	adcs	r2, r2
 80002fc:	0883      	lsrs	r3, r0, #2
 80002fe:	428b      	cmp	r3, r1
 8000300:	d301      	bcc.n	8000306 <__divsi3+0xea>
 8000302:	008b      	lsls	r3, r1, #2
 8000304:	1ac0      	subs	r0, r0, r3
 8000306:	4152      	adcs	r2, r2
 8000308:	0843      	lsrs	r3, r0, #1
 800030a:	428b      	cmp	r3, r1
 800030c:	d301      	bcc.n	8000312 <__divsi3+0xf6>
 800030e:	004b      	lsls	r3, r1, #1
 8000310:	1ac0      	subs	r0, r0, r3
 8000312:	4152      	adcs	r2, r2
 8000314:	1a41      	subs	r1, r0, r1
 8000316:	d200      	bcs.n	800031a <__divsi3+0xfe>
 8000318:	4601      	mov	r1, r0
 800031a:	4152      	adcs	r2, r2
 800031c:	4610      	mov	r0, r2
 800031e:	4770      	bx	lr
 8000320:	e05d      	b.n	80003de <__divsi3+0x1c2>
 8000322:	0fca      	lsrs	r2, r1, #31
 8000324:	d000      	beq.n	8000328 <__divsi3+0x10c>
 8000326:	4249      	negs	r1, r1
 8000328:	1003      	asrs	r3, r0, #32
 800032a:	d300      	bcc.n	800032e <__divsi3+0x112>
 800032c:	4240      	negs	r0, r0
 800032e:	4053      	eors	r3, r2
 8000330:	2200      	movs	r2, #0
 8000332:	469c      	mov	ip, r3
 8000334:	0903      	lsrs	r3, r0, #4
 8000336:	428b      	cmp	r3, r1
 8000338:	d32d      	bcc.n	8000396 <__divsi3+0x17a>
 800033a:	0a03      	lsrs	r3, r0, #8
 800033c:	428b      	cmp	r3, r1
 800033e:	d312      	bcc.n	8000366 <__divsi3+0x14a>
 8000340:	22fc      	movs	r2, #252	@ 0xfc
 8000342:	0189      	lsls	r1, r1, #6
 8000344:	ba12      	rev	r2, r2
 8000346:	0a03      	lsrs	r3, r0, #8
 8000348:	428b      	cmp	r3, r1
 800034a:	d30c      	bcc.n	8000366 <__divsi3+0x14a>
 800034c:	0189      	lsls	r1, r1, #6
 800034e:	1192      	asrs	r2, r2, #6
 8000350:	428b      	cmp	r3, r1
 8000352:	d308      	bcc.n	8000366 <__divsi3+0x14a>
 8000354:	0189      	lsls	r1, r1, #6
 8000356:	1192      	asrs	r2, r2, #6
 8000358:	428b      	cmp	r3, r1
 800035a:	d304      	bcc.n	8000366 <__divsi3+0x14a>
 800035c:	0189      	lsls	r1, r1, #6
 800035e:	d03a      	beq.n	80003d6 <__divsi3+0x1ba>
 8000360:	1192      	asrs	r2, r2, #6
 8000362:	e000      	b.n	8000366 <__divsi3+0x14a>
 8000364:	0989      	lsrs	r1, r1, #6
 8000366:	09c3      	lsrs	r3, r0, #7
 8000368:	428b      	cmp	r3, r1
 800036a:	d301      	bcc.n	8000370 <__divsi3+0x154>
 800036c:	01cb      	lsls	r3, r1, #7
 800036e:	1ac0      	subs	r0, r0, r3
 8000370:	4152      	adcs	r2, r2
 8000372:	0983      	lsrs	r3, r0, #6
 8000374:	428b      	cmp	r3, r1
 8000376:	d301      	bcc.n	800037c <__divsi3+0x160>
 8000378:	018b      	lsls	r3, r1, #6
 800037a:	1ac0      	subs	r0, r0, r3
 800037c:	4152      	adcs	r2, r2
 800037e:	0943      	lsrs	r3, r0, #5
 8000380:	428b      	cmp	r3, r1
 8000382:	d301      	bcc.n	8000388 <__divsi3+0x16c>
 8000384:	014b      	lsls	r3, r1, #5
 8000386:	1ac0      	subs	r0, r0, r3
 8000388:	4152      	adcs	r2, r2
 800038a:	0903      	lsrs	r3, r0, #4
 800038c:	428b      	cmp	r3, r1
 800038e:	d301      	bcc.n	8000394 <__divsi3+0x178>
 8000390:	010b      	lsls	r3, r1, #4
 8000392:	1ac0      	subs	r0, r0, r3
 8000394:	4152      	adcs	r2, r2
 8000396:	08c3      	lsrs	r3, r0, #3
 8000398:	428b      	cmp	r3, r1
 800039a:	d301      	bcc.n	80003a0 <__divsi3+0x184>
 800039c:	00cb      	lsls	r3, r1, #3
 800039e:	1ac0      	subs	r0, r0, r3
 80003a0:	4152      	adcs	r2, r2
 80003a2:	0883      	lsrs	r3, r0, #2
 80003a4:	428b      	cmp	r3, r1
 80003a6:	d301      	bcc.n	80003ac <__divsi3+0x190>
 80003a8:	008b      	lsls	r3, r1, #2
 80003aa:	1ac0      	subs	r0, r0, r3
 80003ac:	4152      	adcs	r2, r2
 80003ae:	d2d9      	bcs.n	8000364 <__divsi3+0x148>
 80003b0:	0843      	lsrs	r3, r0, #1
 80003b2:	428b      	cmp	r3, r1
 80003b4:	d301      	bcc.n	80003ba <__divsi3+0x19e>
 80003b6:	004b      	lsls	r3, r1, #1
 80003b8:	1ac0      	subs	r0, r0, r3
 80003ba:	4152      	adcs	r2, r2
 80003bc:	1a41      	subs	r1, r0, r1
 80003be:	d200      	bcs.n	80003c2 <__divsi3+0x1a6>
 80003c0:	4601      	mov	r1, r0
 80003c2:	4663      	mov	r3, ip
 80003c4:	4152      	adcs	r2, r2
 80003c6:	105b      	asrs	r3, r3, #1
 80003c8:	4610      	mov	r0, r2
 80003ca:	d301      	bcc.n	80003d0 <__divsi3+0x1b4>
 80003cc:	4240      	negs	r0, r0
 80003ce:	2b00      	cmp	r3, #0
 80003d0:	d500      	bpl.n	80003d4 <__divsi3+0x1b8>
 80003d2:	4249      	negs	r1, r1
 80003d4:	4770      	bx	lr
 80003d6:	4663      	mov	r3, ip
 80003d8:	105b      	asrs	r3, r3, #1
 80003da:	d300      	bcc.n	80003de <__divsi3+0x1c2>
 80003dc:	4240      	negs	r0, r0
 80003de:	b501      	push	{r0, lr}
 80003e0:	2000      	movs	r0, #0
 80003e2:	f000 f805 	bl	80003f0 <__aeabi_idiv0>
 80003e6:	bd02      	pop	{r1, pc}

080003e8 <__aeabi_idivmod>:
 80003e8:	2900      	cmp	r1, #0
 80003ea:	d0f8      	beq.n	80003de <__divsi3+0x1c2>
 80003ec:	e716      	b.n	800021c <__divsi3>
 80003ee:	4770      	bx	lr

080003f0 <__aeabi_idiv0>:
 80003f0:	4770      	bx	lr
 80003f2:	46c0      	nop			@ (mov r8, r8)

080003f4 <__aeabi_d2uiz>:
 80003f4:	b570      	push	{r4, r5, r6, lr}
 80003f6:	2200      	movs	r2, #0
 80003f8:	4b0c      	ldr	r3, [pc, #48]	@ (800042c <__aeabi_d2uiz+0x38>)
 80003fa:	0004      	movs	r4, r0
 80003fc:	000d      	movs	r5, r1
 80003fe:	f001 fef7 	bl	80021f0 <__aeabi_dcmpge>
 8000402:	2800      	cmp	r0, #0
 8000404:	d104      	bne.n	8000410 <__aeabi_d2uiz+0x1c>
 8000406:	0020      	movs	r0, r4
 8000408:	0029      	movs	r1, r5
 800040a:	f001 fe2f 	bl	800206c <__aeabi_d2iz>
 800040e:	bd70      	pop	{r4, r5, r6, pc}
 8000410:	4b06      	ldr	r3, [pc, #24]	@ (800042c <__aeabi_d2uiz+0x38>)
 8000412:	2200      	movs	r2, #0
 8000414:	0020      	movs	r0, r4
 8000416:	0029      	movs	r1, r5
 8000418:	f001 fa1e 	bl	8001858 <__aeabi_dsub>
 800041c:	f001 fe26 	bl	800206c <__aeabi_d2iz>
 8000420:	2380      	movs	r3, #128	@ 0x80
 8000422:	061b      	lsls	r3, r3, #24
 8000424:	469c      	mov	ip, r3
 8000426:	4460      	add	r0, ip
 8000428:	e7f1      	b.n	800040e <__aeabi_d2uiz+0x1a>
 800042a:	46c0      	nop			@ (mov r8, r8)
 800042c:	41e00000 	.word	0x41e00000

08000430 <__aeabi_d2lz>:
 8000430:	b570      	push	{r4, r5, r6, lr}
 8000432:	2200      	movs	r2, #0
 8000434:	2300      	movs	r3, #0
 8000436:	0004      	movs	r4, r0
 8000438:	000d      	movs	r5, r1
 800043a:	f001 febb 	bl	80021b4 <__aeabi_dcmplt>
 800043e:	2800      	cmp	r0, #0
 8000440:	d108      	bne.n	8000454 <__aeabi_d2lz+0x24>
 8000442:	0020      	movs	r0, r4
 8000444:	0029      	movs	r1, r5
 8000446:	f000 f80f 	bl	8000468 <__aeabi_d2ulz>
 800044a:	0002      	movs	r2, r0
 800044c:	000b      	movs	r3, r1
 800044e:	0010      	movs	r0, r2
 8000450:	0019      	movs	r1, r3
 8000452:	bd70      	pop	{r4, r5, r6, pc}
 8000454:	2380      	movs	r3, #128	@ 0x80
 8000456:	061b      	lsls	r3, r3, #24
 8000458:	18e9      	adds	r1, r5, r3
 800045a:	0020      	movs	r0, r4
 800045c:	f000 f804 	bl	8000468 <__aeabi_d2ulz>
 8000460:	2300      	movs	r3, #0
 8000462:	4242      	negs	r2, r0
 8000464:	418b      	sbcs	r3, r1
 8000466:	e7f2      	b.n	800044e <__aeabi_d2lz+0x1e>

08000468 <__aeabi_d2ulz>:
 8000468:	b570      	push	{r4, r5, r6, lr}
 800046a:	2200      	movs	r2, #0
 800046c:	4b0b      	ldr	r3, [pc, #44]	@ (800049c <__aeabi_d2ulz+0x34>)
 800046e:	000d      	movs	r5, r1
 8000470:	0004      	movs	r4, r0
 8000472:	f000 ff0b 	bl	800128c <__aeabi_dmul>
 8000476:	f7ff ffbd 	bl	80003f4 <__aeabi_d2uiz>
 800047a:	0006      	movs	r6, r0
 800047c:	f001 fe60 	bl	8002140 <__aeabi_ui2d>
 8000480:	2200      	movs	r2, #0
 8000482:	4b07      	ldr	r3, [pc, #28]	@ (80004a0 <__aeabi_d2ulz+0x38>)
 8000484:	f000 ff02 	bl	800128c <__aeabi_dmul>
 8000488:	0002      	movs	r2, r0
 800048a:	000b      	movs	r3, r1
 800048c:	0020      	movs	r0, r4
 800048e:	0029      	movs	r1, r5
 8000490:	f001 f9e2 	bl	8001858 <__aeabi_dsub>
 8000494:	f7ff ffae 	bl	80003f4 <__aeabi_d2uiz>
 8000498:	0031      	movs	r1, r6
 800049a:	bd70      	pop	{r4, r5, r6, pc}
 800049c:	3df00000 	.word	0x3df00000
 80004a0:	41f00000 	.word	0x41f00000

080004a4 <__aeabi_l2d>:
 80004a4:	b570      	push	{r4, r5, r6, lr}
 80004a6:	0006      	movs	r6, r0
 80004a8:	0008      	movs	r0, r1
 80004aa:	f001 fe1b 	bl	80020e4 <__aeabi_i2d>
 80004ae:	2200      	movs	r2, #0
 80004b0:	4b06      	ldr	r3, [pc, #24]	@ (80004cc <__aeabi_l2d+0x28>)
 80004b2:	f000 feeb 	bl	800128c <__aeabi_dmul>
 80004b6:	000d      	movs	r5, r1
 80004b8:	0004      	movs	r4, r0
 80004ba:	0030      	movs	r0, r6
 80004bc:	f001 fe40 	bl	8002140 <__aeabi_ui2d>
 80004c0:	002b      	movs	r3, r5
 80004c2:	0022      	movs	r2, r4
 80004c4:	f000 f804 	bl	80004d0 <__aeabi_dadd>
 80004c8:	bd70      	pop	{r4, r5, r6, pc}
 80004ca:	46c0      	nop			@ (mov r8, r8)
 80004cc:	41f00000 	.word	0x41f00000

080004d0 <__aeabi_dadd>:
 80004d0:	b5f0      	push	{r4, r5, r6, r7, lr}
 80004d2:	464f      	mov	r7, r9
 80004d4:	4646      	mov	r6, r8
 80004d6:	46d6      	mov	lr, sl
 80004d8:	b5c0      	push	{r6, r7, lr}
 80004da:	b082      	sub	sp, #8
 80004dc:	9000      	str	r0, [sp, #0]
 80004de:	9101      	str	r1, [sp, #4]
 80004e0:	030e      	lsls	r6, r1, #12
 80004e2:	004c      	lsls	r4, r1, #1
 80004e4:	0fcd      	lsrs	r5, r1, #31
 80004e6:	0a71      	lsrs	r1, r6, #9
 80004e8:	9e00      	ldr	r6, [sp, #0]
 80004ea:	005f      	lsls	r7, r3, #1
 80004ec:	0f76      	lsrs	r6, r6, #29
 80004ee:	430e      	orrs	r6, r1
 80004f0:	9900      	ldr	r1, [sp, #0]
 80004f2:	9200      	str	r2, [sp, #0]
 80004f4:	9301      	str	r3, [sp, #4]
 80004f6:	00c9      	lsls	r1, r1, #3
 80004f8:	4689      	mov	r9, r1
 80004fa:	0319      	lsls	r1, r3, #12
 80004fc:	0d7b      	lsrs	r3, r7, #21
 80004fe:	4698      	mov	r8, r3
 8000500:	9b01      	ldr	r3, [sp, #4]
 8000502:	0a49      	lsrs	r1, r1, #9
 8000504:	0fdb      	lsrs	r3, r3, #31
 8000506:	469c      	mov	ip, r3
 8000508:	9b00      	ldr	r3, [sp, #0]
 800050a:	9a00      	ldr	r2, [sp, #0]
 800050c:	0f5b      	lsrs	r3, r3, #29
 800050e:	430b      	orrs	r3, r1
 8000510:	4641      	mov	r1, r8
 8000512:	0d64      	lsrs	r4, r4, #21
 8000514:	00d2      	lsls	r2, r2, #3
 8000516:	1a61      	subs	r1, r4, r1
 8000518:	4565      	cmp	r5, ip
 800051a:	d100      	bne.n	800051e <__aeabi_dadd+0x4e>
 800051c:	e0a6      	b.n	800066c <__aeabi_dadd+0x19c>
 800051e:	2900      	cmp	r1, #0
 8000520:	dd72      	ble.n	8000608 <__aeabi_dadd+0x138>
 8000522:	4647      	mov	r7, r8
 8000524:	2f00      	cmp	r7, #0
 8000526:	d100      	bne.n	800052a <__aeabi_dadd+0x5a>
 8000528:	e0dd      	b.n	80006e6 <__aeabi_dadd+0x216>
 800052a:	4fcc      	ldr	r7, [pc, #816]	@ (800085c <__aeabi_dadd+0x38c>)
 800052c:	42bc      	cmp	r4, r7
 800052e:	d100      	bne.n	8000532 <__aeabi_dadd+0x62>
 8000530:	e19a      	b.n	8000868 <__aeabi_dadd+0x398>
 8000532:	2701      	movs	r7, #1
 8000534:	2938      	cmp	r1, #56	@ 0x38
 8000536:	dc17      	bgt.n	8000568 <__aeabi_dadd+0x98>
 8000538:	2780      	movs	r7, #128	@ 0x80
 800053a:	043f      	lsls	r7, r7, #16
 800053c:	433b      	orrs	r3, r7
 800053e:	291f      	cmp	r1, #31
 8000540:	dd00      	ble.n	8000544 <__aeabi_dadd+0x74>
 8000542:	e1dd      	b.n	8000900 <__aeabi_dadd+0x430>
 8000544:	2720      	movs	r7, #32
 8000546:	1a78      	subs	r0, r7, r1
 8000548:	001f      	movs	r7, r3
 800054a:	4087      	lsls	r7, r0
 800054c:	46ba      	mov	sl, r7
 800054e:	0017      	movs	r7, r2
 8000550:	40cf      	lsrs	r7, r1
 8000552:	4684      	mov	ip, r0
 8000554:	0038      	movs	r0, r7
 8000556:	4657      	mov	r7, sl
 8000558:	4307      	orrs	r7, r0
 800055a:	4660      	mov	r0, ip
 800055c:	4082      	lsls	r2, r0
 800055e:	40cb      	lsrs	r3, r1
 8000560:	1e50      	subs	r0, r2, #1
 8000562:	4182      	sbcs	r2, r0
 8000564:	1af6      	subs	r6, r6, r3
 8000566:	4317      	orrs	r7, r2
 8000568:	464b      	mov	r3, r9
 800056a:	1bdf      	subs	r7, r3, r7
 800056c:	45b9      	cmp	r9, r7
 800056e:	4180      	sbcs	r0, r0
 8000570:	4240      	negs	r0, r0
 8000572:	1a36      	subs	r6, r6, r0
 8000574:	0233      	lsls	r3, r6, #8
 8000576:	d400      	bmi.n	800057a <__aeabi_dadd+0xaa>
 8000578:	e0ff      	b.n	800077a <__aeabi_dadd+0x2aa>
 800057a:	0276      	lsls	r6, r6, #9
 800057c:	0a76      	lsrs	r6, r6, #9
 800057e:	2e00      	cmp	r6, #0
 8000580:	d100      	bne.n	8000584 <__aeabi_dadd+0xb4>
 8000582:	e13c      	b.n	80007fe <__aeabi_dadd+0x32e>
 8000584:	0030      	movs	r0, r6
 8000586:	f001 fe3d 	bl	8002204 <__clzsi2>
 800058a:	0003      	movs	r3, r0
 800058c:	3b08      	subs	r3, #8
 800058e:	2120      	movs	r1, #32
 8000590:	0038      	movs	r0, r7
 8000592:	1aca      	subs	r2, r1, r3
 8000594:	40d0      	lsrs	r0, r2
 8000596:	409e      	lsls	r6, r3
 8000598:	0002      	movs	r2, r0
 800059a:	409f      	lsls	r7, r3
 800059c:	4332      	orrs	r2, r6
 800059e:	429c      	cmp	r4, r3
 80005a0:	dd00      	ble.n	80005a4 <__aeabi_dadd+0xd4>
 80005a2:	e1a6      	b.n	80008f2 <__aeabi_dadd+0x422>
 80005a4:	1b18      	subs	r0, r3, r4
 80005a6:	3001      	adds	r0, #1
 80005a8:	1a09      	subs	r1, r1, r0
 80005aa:	003e      	movs	r6, r7
 80005ac:	408f      	lsls	r7, r1
 80005ae:	40c6      	lsrs	r6, r0
 80005b0:	1e7b      	subs	r3, r7, #1
 80005b2:	419f      	sbcs	r7, r3
 80005b4:	0013      	movs	r3, r2
 80005b6:	408b      	lsls	r3, r1
 80005b8:	4337      	orrs	r7, r6
 80005ba:	431f      	orrs	r7, r3
 80005bc:	40c2      	lsrs	r2, r0
 80005be:	003b      	movs	r3, r7
 80005c0:	0016      	movs	r6, r2
 80005c2:	2400      	movs	r4, #0
 80005c4:	4313      	orrs	r3, r2
 80005c6:	d100      	bne.n	80005ca <__aeabi_dadd+0xfa>
 80005c8:	e1df      	b.n	800098a <__aeabi_dadd+0x4ba>
 80005ca:	077b      	lsls	r3, r7, #29
 80005cc:	d100      	bne.n	80005d0 <__aeabi_dadd+0x100>
 80005ce:	e332      	b.n	8000c36 <__aeabi_dadd+0x766>
 80005d0:	230f      	movs	r3, #15
 80005d2:	003a      	movs	r2, r7
 80005d4:	403b      	ands	r3, r7
 80005d6:	2b04      	cmp	r3, #4
 80005d8:	d004      	beq.n	80005e4 <__aeabi_dadd+0x114>
 80005da:	1d3a      	adds	r2, r7, #4
 80005dc:	42ba      	cmp	r2, r7
 80005de:	41bf      	sbcs	r7, r7
 80005e0:	427f      	negs	r7, r7
 80005e2:	19f6      	adds	r6, r6, r7
 80005e4:	0233      	lsls	r3, r6, #8
 80005e6:	d400      	bmi.n	80005ea <__aeabi_dadd+0x11a>
 80005e8:	e323      	b.n	8000c32 <__aeabi_dadd+0x762>
 80005ea:	4b9c      	ldr	r3, [pc, #624]	@ (800085c <__aeabi_dadd+0x38c>)
 80005ec:	3401      	adds	r4, #1
 80005ee:	429c      	cmp	r4, r3
 80005f0:	d100      	bne.n	80005f4 <__aeabi_dadd+0x124>
 80005f2:	e0b4      	b.n	800075e <__aeabi_dadd+0x28e>
 80005f4:	4b9a      	ldr	r3, [pc, #616]	@ (8000860 <__aeabi_dadd+0x390>)
 80005f6:	0564      	lsls	r4, r4, #21
 80005f8:	401e      	ands	r6, r3
 80005fa:	0d64      	lsrs	r4, r4, #21
 80005fc:	0777      	lsls	r7, r6, #29
 80005fe:	08d2      	lsrs	r2, r2, #3
 8000600:	0276      	lsls	r6, r6, #9
 8000602:	4317      	orrs	r7, r2
 8000604:	0b36      	lsrs	r6, r6, #12
 8000606:	e0ac      	b.n	8000762 <__aeabi_dadd+0x292>
 8000608:	2900      	cmp	r1, #0
 800060a:	d100      	bne.n	800060e <__aeabi_dadd+0x13e>
 800060c:	e07e      	b.n	800070c <__aeabi_dadd+0x23c>
 800060e:	4641      	mov	r1, r8
 8000610:	1b09      	subs	r1, r1, r4
 8000612:	2c00      	cmp	r4, #0
 8000614:	d000      	beq.n	8000618 <__aeabi_dadd+0x148>
 8000616:	e160      	b.n	80008da <__aeabi_dadd+0x40a>
 8000618:	0034      	movs	r4, r6
 800061a:	4648      	mov	r0, r9
 800061c:	4304      	orrs	r4, r0
 800061e:	d100      	bne.n	8000622 <__aeabi_dadd+0x152>
 8000620:	e1c9      	b.n	80009b6 <__aeabi_dadd+0x4e6>
 8000622:	1e4c      	subs	r4, r1, #1
 8000624:	2901      	cmp	r1, #1
 8000626:	d100      	bne.n	800062a <__aeabi_dadd+0x15a>
 8000628:	e22e      	b.n	8000a88 <__aeabi_dadd+0x5b8>
 800062a:	4d8c      	ldr	r5, [pc, #560]	@ (800085c <__aeabi_dadd+0x38c>)
 800062c:	42a9      	cmp	r1, r5
 800062e:	d100      	bne.n	8000632 <__aeabi_dadd+0x162>
 8000630:	e224      	b.n	8000a7c <__aeabi_dadd+0x5ac>
 8000632:	2701      	movs	r7, #1
 8000634:	2c38      	cmp	r4, #56	@ 0x38
 8000636:	dc11      	bgt.n	800065c <__aeabi_dadd+0x18c>
 8000638:	0021      	movs	r1, r4
 800063a:	291f      	cmp	r1, #31
 800063c:	dd00      	ble.n	8000640 <__aeabi_dadd+0x170>
 800063e:	e20b      	b.n	8000a58 <__aeabi_dadd+0x588>
 8000640:	2420      	movs	r4, #32
 8000642:	0037      	movs	r7, r6
 8000644:	4648      	mov	r0, r9
 8000646:	1a64      	subs	r4, r4, r1
 8000648:	40a7      	lsls	r7, r4
 800064a:	40c8      	lsrs	r0, r1
 800064c:	4307      	orrs	r7, r0
 800064e:	4648      	mov	r0, r9
 8000650:	40a0      	lsls	r0, r4
 8000652:	40ce      	lsrs	r6, r1
 8000654:	1e44      	subs	r4, r0, #1
 8000656:	41a0      	sbcs	r0, r4
 8000658:	1b9b      	subs	r3, r3, r6
 800065a:	4307      	orrs	r7, r0
 800065c:	1bd7      	subs	r7, r2, r7
 800065e:	42ba      	cmp	r2, r7
 8000660:	4192      	sbcs	r2, r2
 8000662:	4252      	negs	r2, r2
 8000664:	4665      	mov	r5, ip
 8000666:	4644      	mov	r4, r8
 8000668:	1a9e      	subs	r6, r3, r2
 800066a:	e783      	b.n	8000574 <__aeabi_dadd+0xa4>
 800066c:	2900      	cmp	r1, #0
 800066e:	dc00      	bgt.n	8000672 <__aeabi_dadd+0x1a2>
 8000670:	e09c      	b.n	80007ac <__aeabi_dadd+0x2dc>
 8000672:	4647      	mov	r7, r8
 8000674:	2f00      	cmp	r7, #0
 8000676:	d167      	bne.n	8000748 <__aeabi_dadd+0x278>
 8000678:	001f      	movs	r7, r3
 800067a:	4317      	orrs	r7, r2
 800067c:	d100      	bne.n	8000680 <__aeabi_dadd+0x1b0>
 800067e:	e0e4      	b.n	800084a <__aeabi_dadd+0x37a>
 8000680:	1e48      	subs	r0, r1, #1
 8000682:	2901      	cmp	r1, #1
 8000684:	d100      	bne.n	8000688 <__aeabi_dadd+0x1b8>
 8000686:	e19b      	b.n	80009c0 <__aeabi_dadd+0x4f0>
 8000688:	4f74      	ldr	r7, [pc, #464]	@ (800085c <__aeabi_dadd+0x38c>)
 800068a:	42b9      	cmp	r1, r7
 800068c:	d100      	bne.n	8000690 <__aeabi_dadd+0x1c0>
 800068e:	e0eb      	b.n	8000868 <__aeabi_dadd+0x398>
 8000690:	2701      	movs	r7, #1
 8000692:	0001      	movs	r1, r0
 8000694:	2838      	cmp	r0, #56	@ 0x38
 8000696:	dc11      	bgt.n	80006bc <__aeabi_dadd+0x1ec>
 8000698:	291f      	cmp	r1, #31
 800069a:	dd00      	ble.n	800069e <__aeabi_dadd+0x1ce>
 800069c:	e1c7      	b.n	8000a2e <__aeabi_dadd+0x55e>
 800069e:	2720      	movs	r7, #32
 80006a0:	1a78      	subs	r0, r7, r1
 80006a2:	001f      	movs	r7, r3
 80006a4:	4684      	mov	ip, r0
 80006a6:	4087      	lsls	r7, r0
 80006a8:	0010      	movs	r0, r2
 80006aa:	40c8      	lsrs	r0, r1
 80006ac:	4307      	orrs	r7, r0
 80006ae:	4660      	mov	r0, ip
 80006b0:	4082      	lsls	r2, r0
 80006b2:	40cb      	lsrs	r3, r1
 80006b4:	1e50      	subs	r0, r2, #1
 80006b6:	4182      	sbcs	r2, r0
 80006b8:	18f6      	adds	r6, r6, r3
 80006ba:	4317      	orrs	r7, r2
 80006bc:	444f      	add	r7, r9
 80006be:	454f      	cmp	r7, r9
 80006c0:	4180      	sbcs	r0, r0
 80006c2:	4240      	negs	r0, r0
 80006c4:	1836      	adds	r6, r6, r0
 80006c6:	0233      	lsls	r3, r6, #8
 80006c8:	d557      	bpl.n	800077a <__aeabi_dadd+0x2aa>
 80006ca:	4b64      	ldr	r3, [pc, #400]	@ (800085c <__aeabi_dadd+0x38c>)
 80006cc:	3401      	adds	r4, #1
 80006ce:	429c      	cmp	r4, r3
 80006d0:	d045      	beq.n	800075e <__aeabi_dadd+0x28e>
 80006d2:	2101      	movs	r1, #1
 80006d4:	4b62      	ldr	r3, [pc, #392]	@ (8000860 <__aeabi_dadd+0x390>)
 80006d6:	087a      	lsrs	r2, r7, #1
 80006d8:	401e      	ands	r6, r3
 80006da:	4039      	ands	r1, r7
 80006dc:	430a      	orrs	r2, r1
 80006de:	07f7      	lsls	r7, r6, #31
 80006e0:	4317      	orrs	r7, r2
 80006e2:	0876      	lsrs	r6, r6, #1
 80006e4:	e771      	b.n	80005ca <__aeabi_dadd+0xfa>
 80006e6:	001f      	movs	r7, r3
 80006e8:	4317      	orrs	r7, r2
 80006ea:	d100      	bne.n	80006ee <__aeabi_dadd+0x21e>
 80006ec:	e0ad      	b.n	800084a <__aeabi_dadd+0x37a>
 80006ee:	1e4f      	subs	r7, r1, #1
 80006f0:	46bc      	mov	ip, r7
 80006f2:	2901      	cmp	r1, #1
 80006f4:	d100      	bne.n	80006f8 <__aeabi_dadd+0x228>
 80006f6:	e182      	b.n	80009fe <__aeabi_dadd+0x52e>
 80006f8:	4f58      	ldr	r7, [pc, #352]	@ (800085c <__aeabi_dadd+0x38c>)
 80006fa:	42b9      	cmp	r1, r7
 80006fc:	d100      	bne.n	8000700 <__aeabi_dadd+0x230>
 80006fe:	e190      	b.n	8000a22 <__aeabi_dadd+0x552>
 8000700:	4661      	mov	r1, ip
 8000702:	2701      	movs	r7, #1
 8000704:	2938      	cmp	r1, #56	@ 0x38
 8000706:	dd00      	ble.n	800070a <__aeabi_dadd+0x23a>
 8000708:	e72e      	b.n	8000568 <__aeabi_dadd+0x98>
 800070a:	e718      	b.n	800053e <__aeabi_dadd+0x6e>
 800070c:	4f55      	ldr	r7, [pc, #340]	@ (8000864 <__aeabi_dadd+0x394>)
 800070e:	1c61      	adds	r1, r4, #1
 8000710:	4239      	tst	r1, r7
 8000712:	d000      	beq.n	8000716 <__aeabi_dadd+0x246>
 8000714:	e0d0      	b.n	80008b8 <__aeabi_dadd+0x3e8>
 8000716:	0031      	movs	r1, r6
 8000718:	4648      	mov	r0, r9
 800071a:	001f      	movs	r7, r3
 800071c:	4301      	orrs	r1, r0
 800071e:	4317      	orrs	r7, r2
 8000720:	2c00      	cmp	r4, #0
 8000722:	d000      	beq.n	8000726 <__aeabi_dadd+0x256>
 8000724:	e13d      	b.n	80009a2 <__aeabi_dadd+0x4d2>
 8000726:	2900      	cmp	r1, #0
 8000728:	d100      	bne.n	800072c <__aeabi_dadd+0x25c>
 800072a:	e1bc      	b.n	8000aa6 <__aeabi_dadd+0x5d6>
 800072c:	2f00      	cmp	r7, #0
 800072e:	d000      	beq.n	8000732 <__aeabi_dadd+0x262>
 8000730:	e1bf      	b.n	8000ab2 <__aeabi_dadd+0x5e2>
 8000732:	464b      	mov	r3, r9
 8000734:	2100      	movs	r1, #0
 8000736:	08d8      	lsrs	r0, r3, #3
 8000738:	0777      	lsls	r7, r6, #29
 800073a:	4307      	orrs	r7, r0
 800073c:	08f0      	lsrs	r0, r6, #3
 800073e:	0306      	lsls	r6, r0, #12
 8000740:	054c      	lsls	r4, r1, #21
 8000742:	0b36      	lsrs	r6, r6, #12
 8000744:	0d64      	lsrs	r4, r4, #21
 8000746:	e00c      	b.n	8000762 <__aeabi_dadd+0x292>
 8000748:	4f44      	ldr	r7, [pc, #272]	@ (800085c <__aeabi_dadd+0x38c>)
 800074a:	42bc      	cmp	r4, r7
 800074c:	d100      	bne.n	8000750 <__aeabi_dadd+0x280>
 800074e:	e08b      	b.n	8000868 <__aeabi_dadd+0x398>
 8000750:	2701      	movs	r7, #1
 8000752:	2938      	cmp	r1, #56	@ 0x38
 8000754:	dcb2      	bgt.n	80006bc <__aeabi_dadd+0x1ec>
 8000756:	2780      	movs	r7, #128	@ 0x80
 8000758:	043f      	lsls	r7, r7, #16
 800075a:	433b      	orrs	r3, r7
 800075c:	e79c      	b.n	8000698 <__aeabi_dadd+0x1c8>
 800075e:	2600      	movs	r6, #0
 8000760:	2700      	movs	r7, #0
 8000762:	0524      	lsls	r4, r4, #20
 8000764:	4334      	orrs	r4, r6
 8000766:	07ed      	lsls	r5, r5, #31
 8000768:	432c      	orrs	r4, r5
 800076a:	0038      	movs	r0, r7
 800076c:	0021      	movs	r1, r4
 800076e:	b002      	add	sp, #8
 8000770:	bce0      	pop	{r5, r6, r7}
 8000772:	46ba      	mov	sl, r7
 8000774:	46b1      	mov	r9, r6
 8000776:	46a8      	mov	r8, r5
 8000778:	bdf0      	pop	{r4, r5, r6, r7, pc}
 800077a:	077b      	lsls	r3, r7, #29
 800077c:	d004      	beq.n	8000788 <__aeabi_dadd+0x2b8>
 800077e:	230f      	movs	r3, #15
 8000780:	403b      	ands	r3, r7
 8000782:	2b04      	cmp	r3, #4
 8000784:	d000      	beq.n	8000788 <__aeabi_dadd+0x2b8>
 8000786:	e728      	b.n	80005da <__aeabi_dadd+0x10a>
 8000788:	08f8      	lsrs	r0, r7, #3
 800078a:	4b34      	ldr	r3, [pc, #208]	@ (800085c <__aeabi_dadd+0x38c>)
 800078c:	0777      	lsls	r7, r6, #29
 800078e:	4307      	orrs	r7, r0
 8000790:	08f0      	lsrs	r0, r6, #3
 8000792:	429c      	cmp	r4, r3
 8000794:	d000      	beq.n	8000798 <__aeabi_dadd+0x2c8>
 8000796:	e24a      	b.n	8000c2e <__aeabi_dadd+0x75e>
 8000798:	003b      	movs	r3, r7
 800079a:	4303      	orrs	r3, r0
 800079c:	d059      	beq.n	8000852 <__aeabi_dadd+0x382>
 800079e:	2680      	movs	r6, #128	@ 0x80
 80007a0:	0336      	lsls	r6, r6, #12
 80007a2:	4306      	orrs	r6, r0
 80007a4:	0336      	lsls	r6, r6, #12
 80007a6:	4c2d      	ldr	r4, [pc, #180]	@ (800085c <__aeabi_dadd+0x38c>)
 80007a8:	0b36      	lsrs	r6, r6, #12
 80007aa:	e7da      	b.n	8000762 <__aeabi_dadd+0x292>
 80007ac:	2900      	cmp	r1, #0
 80007ae:	d061      	beq.n	8000874 <__aeabi_dadd+0x3a4>
 80007b0:	4641      	mov	r1, r8
 80007b2:	1b09      	subs	r1, r1, r4
 80007b4:	2c00      	cmp	r4, #0
 80007b6:	d100      	bne.n	80007ba <__aeabi_dadd+0x2ea>
 80007b8:	e0b9      	b.n	800092e <__aeabi_dadd+0x45e>
 80007ba:	4c28      	ldr	r4, [pc, #160]	@ (800085c <__aeabi_dadd+0x38c>)
 80007bc:	45a0      	cmp	r8, r4
 80007be:	d100      	bne.n	80007c2 <__aeabi_dadd+0x2f2>
 80007c0:	e1a5      	b.n	8000b0e <__aeabi_dadd+0x63e>
 80007c2:	2701      	movs	r7, #1
 80007c4:	2938      	cmp	r1, #56	@ 0x38
 80007c6:	dc13      	bgt.n	80007f0 <__aeabi_dadd+0x320>
 80007c8:	2480      	movs	r4, #128	@ 0x80
 80007ca:	0424      	lsls	r4, r4, #16
 80007cc:	4326      	orrs	r6, r4
 80007ce:	291f      	cmp	r1, #31
 80007d0:	dd00      	ble.n	80007d4 <__aeabi_dadd+0x304>
 80007d2:	e1c8      	b.n	8000b66 <__aeabi_dadd+0x696>
 80007d4:	2420      	movs	r4, #32
 80007d6:	0037      	movs	r7, r6
 80007d8:	4648      	mov	r0, r9
 80007da:	1a64      	subs	r4, r4, r1
 80007dc:	40a7      	lsls	r7, r4
 80007de:	40c8      	lsrs	r0, r1
 80007e0:	4307      	orrs	r7, r0
 80007e2:	4648      	mov	r0, r9
 80007e4:	40a0      	lsls	r0, r4
 80007e6:	40ce      	lsrs	r6, r1
 80007e8:	1e44      	subs	r4, r0, #1
 80007ea:	41a0      	sbcs	r0, r4
 80007ec:	199b      	adds	r3, r3, r6
 80007ee:	4307      	orrs	r7, r0
 80007f0:	18bf      	adds	r7, r7, r2
 80007f2:	4297      	cmp	r7, r2
 80007f4:	4192      	sbcs	r2, r2
 80007f6:	4252      	negs	r2, r2
 80007f8:	4644      	mov	r4, r8
 80007fa:	18d6      	adds	r6, r2, r3
 80007fc:	e763      	b.n	80006c6 <__aeabi_dadd+0x1f6>
 80007fe:	0038      	movs	r0, r7
 8000800:	f001 fd00 	bl	8002204 <__clzsi2>
 8000804:	0003      	movs	r3, r0
 8000806:	3318      	adds	r3, #24
 8000808:	2b1f      	cmp	r3, #31
 800080a:	dc00      	bgt.n	800080e <__aeabi_dadd+0x33e>
 800080c:	e6bf      	b.n	800058e <__aeabi_dadd+0xbe>
 800080e:	003a      	movs	r2, r7
 8000810:	3808      	subs	r0, #8
 8000812:	4082      	lsls	r2, r0
 8000814:	429c      	cmp	r4, r3
 8000816:	dd00      	ble.n	800081a <__aeabi_dadd+0x34a>
 8000818:	e083      	b.n	8000922 <__aeabi_dadd+0x452>
 800081a:	1b1b      	subs	r3, r3, r4
 800081c:	1c58      	adds	r0, r3, #1
 800081e:	281f      	cmp	r0, #31
 8000820:	dc00      	bgt.n	8000824 <__aeabi_dadd+0x354>
 8000822:	e1b4      	b.n	8000b8e <__aeabi_dadd+0x6be>
 8000824:	0017      	movs	r7, r2
 8000826:	3b1f      	subs	r3, #31
 8000828:	40df      	lsrs	r7, r3
 800082a:	2820      	cmp	r0, #32
 800082c:	d005      	beq.n	800083a <__aeabi_dadd+0x36a>
 800082e:	2340      	movs	r3, #64	@ 0x40
 8000830:	1a1b      	subs	r3, r3, r0
 8000832:	409a      	lsls	r2, r3
 8000834:	1e53      	subs	r3, r2, #1
 8000836:	419a      	sbcs	r2, r3
 8000838:	4317      	orrs	r7, r2
 800083a:	2400      	movs	r4, #0
 800083c:	2f00      	cmp	r7, #0
 800083e:	d00a      	beq.n	8000856 <__aeabi_dadd+0x386>
 8000840:	077b      	lsls	r3, r7, #29
 8000842:	d000      	beq.n	8000846 <__aeabi_dadd+0x376>
 8000844:	e6c4      	b.n	80005d0 <__aeabi_dadd+0x100>
 8000846:	0026      	movs	r6, r4
 8000848:	e79e      	b.n	8000788 <__aeabi_dadd+0x2b8>
 800084a:	464b      	mov	r3, r9
 800084c:	000c      	movs	r4, r1
 800084e:	08d8      	lsrs	r0, r3, #3
 8000850:	e79b      	b.n	800078a <__aeabi_dadd+0x2ba>
 8000852:	2700      	movs	r7, #0
 8000854:	4c01      	ldr	r4, [pc, #4]	@ (800085c <__aeabi_dadd+0x38c>)
 8000856:	2600      	movs	r6, #0
 8000858:	e783      	b.n	8000762 <__aeabi_dadd+0x292>
 800085a:	46c0      	nop			@ (mov r8, r8)
 800085c:	000007ff 	.word	0x000007ff
 8000860:	ff7fffff 	.word	0xff7fffff
 8000864:	000007fe 	.word	0x000007fe
 8000868:	464b      	mov	r3, r9
 800086a:	0777      	lsls	r7, r6, #29
 800086c:	08d8      	lsrs	r0, r3, #3
 800086e:	4307      	orrs	r7, r0
 8000870:	08f0      	lsrs	r0, r6, #3
 8000872:	e791      	b.n	8000798 <__aeabi_dadd+0x2c8>
 8000874:	4fcd      	ldr	r7, [pc, #820]	@ (8000bac <__aeabi_dadd+0x6dc>)
 8000876:	1c61      	adds	r1, r4, #1
 8000878:	4239      	tst	r1, r7
 800087a:	d16b      	bne.n	8000954 <__aeabi_dadd+0x484>
 800087c:	0031      	movs	r1, r6
 800087e:	4648      	mov	r0, r9
 8000880:	4301      	orrs	r1, r0
 8000882:	2c00      	cmp	r4, #0
 8000884:	d000      	beq.n	8000888 <__aeabi_dadd+0x3b8>
 8000886:	e14b      	b.n	8000b20 <__aeabi_dadd+0x650>
 8000888:	001f      	movs	r7, r3
 800088a:	4317      	orrs	r7, r2
 800088c:	2900      	cmp	r1, #0
 800088e:	d100      	bne.n	8000892 <__aeabi_dadd+0x3c2>
 8000890:	e181      	b.n	8000b96 <__aeabi_dadd+0x6c6>
 8000892:	2f00      	cmp	r7, #0
 8000894:	d100      	bne.n	8000898 <__aeabi_dadd+0x3c8>
 8000896:	e74c      	b.n	8000732 <__aeabi_dadd+0x262>
 8000898:	444a      	add	r2, r9
 800089a:	454a      	cmp	r2, r9
 800089c:	4180      	sbcs	r0, r0
 800089e:	18f6      	adds	r6, r6, r3
 80008a0:	4240      	negs	r0, r0
 80008a2:	1836      	adds	r6, r6, r0
 80008a4:	0233      	lsls	r3, r6, #8
 80008a6:	d500      	bpl.n	80008aa <__aeabi_dadd+0x3da>
 80008a8:	e1b0      	b.n	8000c0c <__aeabi_dadd+0x73c>
 80008aa:	0017      	movs	r7, r2
 80008ac:	4691      	mov	r9, r2
 80008ae:	4337      	orrs	r7, r6
 80008b0:	d000      	beq.n	80008b4 <__aeabi_dadd+0x3e4>
 80008b2:	e73e      	b.n	8000732 <__aeabi_dadd+0x262>
 80008b4:	2600      	movs	r6, #0
 80008b6:	e754      	b.n	8000762 <__aeabi_dadd+0x292>
 80008b8:	4649      	mov	r1, r9
 80008ba:	1a89      	subs	r1, r1, r2
 80008bc:	4688      	mov	r8, r1
 80008be:	45c1      	cmp	r9, r8
 80008c0:	41bf      	sbcs	r7, r7
 80008c2:	1af1      	subs	r1, r6, r3
 80008c4:	427f      	negs	r7, r7
 80008c6:	1bc9      	subs	r1, r1, r7
 80008c8:	020f      	lsls	r7, r1, #8
 80008ca:	d461      	bmi.n	8000990 <__aeabi_dadd+0x4c0>
 80008cc:	4647      	mov	r7, r8
 80008ce:	430f      	orrs	r7, r1
 80008d0:	d100      	bne.n	80008d4 <__aeabi_dadd+0x404>
 80008d2:	e0bd      	b.n	8000a50 <__aeabi_dadd+0x580>
 80008d4:	000e      	movs	r6, r1
 80008d6:	4647      	mov	r7, r8
 80008d8:	e651      	b.n	800057e <__aeabi_dadd+0xae>
 80008da:	4cb5      	ldr	r4, [pc, #724]	@ (8000bb0 <__aeabi_dadd+0x6e0>)
 80008dc:	45a0      	cmp	r8, r4
 80008de:	d100      	bne.n	80008e2 <__aeabi_dadd+0x412>
 80008e0:	e100      	b.n	8000ae4 <__aeabi_dadd+0x614>
 80008e2:	2701      	movs	r7, #1
 80008e4:	2938      	cmp	r1, #56	@ 0x38
 80008e6:	dd00      	ble.n	80008ea <__aeabi_dadd+0x41a>
 80008e8:	e6b8      	b.n	800065c <__aeabi_dadd+0x18c>
 80008ea:	2480      	movs	r4, #128	@ 0x80
 80008ec:	0424      	lsls	r4, r4, #16
 80008ee:	4326      	orrs	r6, r4
 80008f0:	e6a3      	b.n	800063a <__aeabi_dadd+0x16a>
 80008f2:	4eb0      	ldr	r6, [pc, #704]	@ (8000bb4 <__aeabi_dadd+0x6e4>)
 80008f4:	1ae4      	subs	r4, r4, r3
 80008f6:	4016      	ands	r6, r2
 80008f8:	077b      	lsls	r3, r7, #29
 80008fa:	d000      	beq.n	80008fe <__aeabi_dadd+0x42e>
 80008fc:	e73f      	b.n	800077e <__aeabi_dadd+0x2ae>
 80008fe:	e743      	b.n	8000788 <__aeabi_dadd+0x2b8>
 8000900:	000f      	movs	r7, r1
 8000902:	0018      	movs	r0, r3
 8000904:	3f20      	subs	r7, #32
 8000906:	40f8      	lsrs	r0, r7
 8000908:	4684      	mov	ip, r0
 800090a:	2920      	cmp	r1, #32
 800090c:	d003      	beq.n	8000916 <__aeabi_dadd+0x446>
 800090e:	2740      	movs	r7, #64	@ 0x40
 8000910:	1a79      	subs	r1, r7, r1
 8000912:	408b      	lsls	r3, r1
 8000914:	431a      	orrs	r2, r3
 8000916:	1e53      	subs	r3, r2, #1
 8000918:	419a      	sbcs	r2, r3
 800091a:	4663      	mov	r3, ip
 800091c:	0017      	movs	r7, r2
 800091e:	431f      	orrs	r7, r3
 8000920:	e622      	b.n	8000568 <__aeabi_dadd+0x98>
 8000922:	48a4      	ldr	r0, [pc, #656]	@ (8000bb4 <__aeabi_dadd+0x6e4>)
 8000924:	1ae1      	subs	r1, r4, r3
 8000926:	4010      	ands	r0, r2
 8000928:	0747      	lsls	r7, r0, #29
 800092a:	08c0      	lsrs	r0, r0, #3
 800092c:	e707      	b.n	800073e <__aeabi_dadd+0x26e>
 800092e:	0034      	movs	r4, r6
 8000930:	4648      	mov	r0, r9
 8000932:	4304      	orrs	r4, r0
 8000934:	d100      	bne.n	8000938 <__aeabi_dadd+0x468>
 8000936:	e0fa      	b.n	8000b2e <__aeabi_dadd+0x65e>
 8000938:	1e4c      	subs	r4, r1, #1
 800093a:	2901      	cmp	r1, #1
 800093c:	d100      	bne.n	8000940 <__aeabi_dadd+0x470>
 800093e:	e0d7      	b.n	8000af0 <__aeabi_dadd+0x620>
 8000940:	4f9b      	ldr	r7, [pc, #620]	@ (8000bb0 <__aeabi_dadd+0x6e0>)
 8000942:	42b9      	cmp	r1, r7
 8000944:	d100      	bne.n	8000948 <__aeabi_dadd+0x478>
 8000946:	e0e2      	b.n	8000b0e <__aeabi_dadd+0x63e>
 8000948:	2701      	movs	r7, #1
 800094a:	2c38      	cmp	r4, #56	@ 0x38
 800094c:	dd00      	ble.n	8000950 <__aeabi_dadd+0x480>
 800094e:	e74f      	b.n	80007f0 <__aeabi_dadd+0x320>
 8000950:	0021      	movs	r1, r4
 8000952:	e73c      	b.n	80007ce <__aeabi_dadd+0x2fe>
 8000954:	4c96      	ldr	r4, [pc, #600]	@ (8000bb0 <__aeabi_dadd+0x6e0>)
 8000956:	42a1      	cmp	r1, r4
 8000958:	d100      	bne.n	800095c <__aeabi_dadd+0x48c>
 800095a:	e0dd      	b.n	8000b18 <__aeabi_dadd+0x648>
 800095c:	444a      	add	r2, r9
 800095e:	454a      	cmp	r2, r9
 8000960:	4180      	sbcs	r0, r0
 8000962:	18f3      	adds	r3, r6, r3
 8000964:	4240      	negs	r0, r0
 8000966:	1818      	adds	r0, r3, r0
 8000968:	07c7      	lsls	r7, r0, #31
 800096a:	0852      	lsrs	r2, r2, #1
 800096c:	4317      	orrs	r7, r2
 800096e:	0846      	lsrs	r6, r0, #1
 8000970:	0752      	lsls	r2, r2, #29
 8000972:	d005      	beq.n	8000980 <__aeabi_dadd+0x4b0>
 8000974:	220f      	movs	r2, #15
 8000976:	000c      	movs	r4, r1
 8000978:	403a      	ands	r2, r7
 800097a:	2a04      	cmp	r2, #4
 800097c:	d000      	beq.n	8000980 <__aeabi_dadd+0x4b0>
 800097e:	e62c      	b.n	80005da <__aeabi_dadd+0x10a>
 8000980:	0776      	lsls	r6, r6, #29
 8000982:	08ff      	lsrs	r7, r7, #3
 8000984:	4337      	orrs	r7, r6
 8000986:	0900      	lsrs	r0, r0, #4
 8000988:	e6d9      	b.n	800073e <__aeabi_dadd+0x26e>
 800098a:	2700      	movs	r7, #0
 800098c:	2600      	movs	r6, #0
 800098e:	e6e8      	b.n	8000762 <__aeabi_dadd+0x292>
 8000990:	4649      	mov	r1, r9
 8000992:	1a57      	subs	r7, r2, r1
 8000994:	42ba      	cmp	r2, r7
 8000996:	4192      	sbcs	r2, r2
 8000998:	1b9e      	subs	r6, r3, r6
 800099a:	4252      	negs	r2, r2
 800099c:	4665      	mov	r5, ip
 800099e:	1ab6      	subs	r6, r6, r2
 80009a0:	e5ed      	b.n	800057e <__aeabi_dadd+0xae>
 80009a2:	2900      	cmp	r1, #0
 80009a4:	d000      	beq.n	80009a8 <__aeabi_dadd+0x4d8>
 80009a6:	e0c6      	b.n	8000b36 <__aeabi_dadd+0x666>
 80009a8:	2f00      	cmp	r7, #0
 80009aa:	d167      	bne.n	8000a7c <__aeabi_dadd+0x5ac>
 80009ac:	2680      	movs	r6, #128	@ 0x80
 80009ae:	2500      	movs	r5, #0
 80009b0:	4c7f      	ldr	r4, [pc, #508]	@ (8000bb0 <__aeabi_dadd+0x6e0>)
 80009b2:	0336      	lsls	r6, r6, #12
 80009b4:	e6d5      	b.n	8000762 <__aeabi_dadd+0x292>
 80009b6:	4665      	mov	r5, ip
 80009b8:	000c      	movs	r4, r1
 80009ba:	001e      	movs	r6, r3
 80009bc:	08d0      	lsrs	r0, r2, #3
 80009be:	e6e4      	b.n	800078a <__aeabi_dadd+0x2ba>
 80009c0:	444a      	add	r2, r9
 80009c2:	454a      	cmp	r2, r9
 80009c4:	4180      	sbcs	r0, r0
 80009c6:	18f3      	adds	r3, r6, r3
 80009c8:	4240      	negs	r0, r0
 80009ca:	1818      	adds	r0, r3, r0
 80009cc:	0011      	movs	r1, r2
 80009ce:	0203      	lsls	r3, r0, #8
 80009d0:	d400      	bmi.n	80009d4 <__aeabi_dadd+0x504>
 80009d2:	e096      	b.n	8000b02 <__aeabi_dadd+0x632>
 80009d4:	4b77      	ldr	r3, [pc, #476]	@ (8000bb4 <__aeabi_dadd+0x6e4>)
 80009d6:	0849      	lsrs	r1, r1, #1
 80009d8:	4018      	ands	r0, r3
 80009da:	07c3      	lsls	r3, r0, #31
 80009dc:	430b      	orrs	r3, r1
 80009de:	0844      	lsrs	r4, r0, #1
 80009e0:	0749      	lsls	r1, r1, #29
 80009e2:	d100      	bne.n	80009e6 <__aeabi_dadd+0x516>
 80009e4:	e129      	b.n	8000c3a <__aeabi_dadd+0x76a>
 80009e6:	220f      	movs	r2, #15
 80009e8:	401a      	ands	r2, r3
 80009ea:	2a04      	cmp	r2, #4
 80009ec:	d100      	bne.n	80009f0 <__aeabi_dadd+0x520>
 80009ee:	e0ea      	b.n	8000bc6 <__aeabi_dadd+0x6f6>
 80009f0:	1d1f      	adds	r7, r3, #4
 80009f2:	429f      	cmp	r7, r3
 80009f4:	41b6      	sbcs	r6, r6
 80009f6:	4276      	negs	r6, r6
 80009f8:	1936      	adds	r6, r6, r4
 80009fa:	2402      	movs	r4, #2
 80009fc:	e6c4      	b.n	8000788 <__aeabi_dadd+0x2b8>
 80009fe:	4649      	mov	r1, r9
 8000a00:	1a8f      	subs	r7, r1, r2
 8000a02:	45b9      	cmp	r9, r7
 8000a04:	4180      	sbcs	r0, r0
 8000a06:	1af6      	subs	r6, r6, r3
 8000a08:	4240      	negs	r0, r0
 8000a0a:	1a36      	subs	r6, r6, r0
 8000a0c:	0233      	lsls	r3, r6, #8
 8000a0e:	d406      	bmi.n	8000a1e <__aeabi_dadd+0x54e>
 8000a10:	0773      	lsls	r3, r6, #29
 8000a12:	08ff      	lsrs	r7, r7, #3
 8000a14:	2101      	movs	r1, #1
 8000a16:	431f      	orrs	r7, r3
 8000a18:	08f0      	lsrs	r0, r6, #3
 8000a1a:	e690      	b.n	800073e <__aeabi_dadd+0x26e>
 8000a1c:	4665      	mov	r5, ip
 8000a1e:	2401      	movs	r4, #1
 8000a20:	e5ab      	b.n	800057a <__aeabi_dadd+0xaa>
 8000a22:	464b      	mov	r3, r9
 8000a24:	0777      	lsls	r7, r6, #29
 8000a26:	08d8      	lsrs	r0, r3, #3
 8000a28:	4307      	orrs	r7, r0
 8000a2a:	08f0      	lsrs	r0, r6, #3
 8000a2c:	e6b4      	b.n	8000798 <__aeabi_dadd+0x2c8>
 8000a2e:	000f      	movs	r7, r1
 8000a30:	0018      	movs	r0, r3
 8000a32:	3f20      	subs	r7, #32
 8000a34:	40f8      	lsrs	r0, r7
 8000a36:	4684      	mov	ip, r0
 8000a38:	2920      	cmp	r1, #32
 8000a3a:	d003      	beq.n	8000a44 <__aeabi_dadd+0x574>
 8000a3c:	2740      	movs	r7, #64	@ 0x40
 8000a3e:	1a79      	subs	r1, r7, r1
 8000a40:	408b      	lsls	r3, r1
 8000a42:	431a      	orrs	r2, r3
 8000a44:	1e53      	subs	r3, r2, #1
 8000a46:	419a      	sbcs	r2, r3
 8000a48:	4663      	mov	r3, ip
 8000a4a:	0017      	movs	r7, r2
 8000a4c:	431f      	orrs	r7, r3
 8000a4e:	e635      	b.n	80006bc <__aeabi_dadd+0x1ec>
 8000a50:	2500      	movs	r5, #0
 8000a52:	2400      	movs	r4, #0
 8000a54:	2600      	movs	r6, #0
 8000a56:	e684      	b.n	8000762 <__aeabi_dadd+0x292>
 8000a58:	000c      	movs	r4, r1
 8000a5a:	0035      	movs	r5, r6
 8000a5c:	3c20      	subs	r4, #32
 8000a5e:	40e5      	lsrs	r5, r4
 8000a60:	2920      	cmp	r1, #32
 8000a62:	d005      	beq.n	8000a70 <__aeabi_dadd+0x5a0>
 8000a64:	2440      	movs	r4, #64	@ 0x40
 8000a66:	1a61      	subs	r1, r4, r1
 8000a68:	408e      	lsls	r6, r1
 8000a6a:	4649      	mov	r1, r9
 8000a6c:	4331      	orrs	r1, r6
 8000a6e:	4689      	mov	r9, r1
 8000a70:	4648      	mov	r0, r9
 8000a72:	1e41      	subs	r1, r0, #1
 8000a74:	4188      	sbcs	r0, r1
 8000a76:	0007      	movs	r7, r0
 8000a78:	432f      	orrs	r7, r5
 8000a7a:	e5ef      	b.n	800065c <__aeabi_dadd+0x18c>
 8000a7c:	08d2      	lsrs	r2, r2, #3
 8000a7e:	075f      	lsls	r7, r3, #29
 8000a80:	4665      	mov	r5, ip
 8000a82:	4317      	orrs	r7, r2
 8000a84:	08d8      	lsrs	r0, r3, #3
 8000a86:	e687      	b.n	8000798 <__aeabi_dadd+0x2c8>
 8000a88:	1a17      	subs	r7, r2, r0
 8000a8a:	42ba      	cmp	r2, r7
 8000a8c:	4192      	sbcs	r2, r2
 8000a8e:	1b9e      	subs	r6, r3, r6
 8000a90:	4252      	negs	r2, r2
 8000a92:	1ab6      	subs	r6, r6, r2
 8000a94:	0233      	lsls	r3, r6, #8
 8000a96:	d4c1      	bmi.n	8000a1c <__aeabi_dadd+0x54c>
 8000a98:	0773      	lsls	r3, r6, #29
 8000a9a:	08ff      	lsrs	r7, r7, #3
 8000a9c:	4665      	mov	r5, ip
 8000a9e:	2101      	movs	r1, #1
 8000aa0:	431f      	orrs	r7, r3
 8000aa2:	08f0      	lsrs	r0, r6, #3
 8000aa4:	e64b      	b.n	800073e <__aeabi_dadd+0x26e>
 8000aa6:	2f00      	cmp	r7, #0
 8000aa8:	d07b      	beq.n	8000ba2 <__aeabi_dadd+0x6d2>
 8000aaa:	4665      	mov	r5, ip
 8000aac:	001e      	movs	r6, r3
 8000aae:	4691      	mov	r9, r2
 8000ab0:	e63f      	b.n	8000732 <__aeabi_dadd+0x262>
 8000ab2:	1a81      	subs	r1, r0, r2
 8000ab4:	4688      	mov	r8, r1
 8000ab6:	45c1      	cmp	r9, r8
 8000ab8:	41a4      	sbcs	r4, r4
 8000aba:	1af1      	subs	r1, r6, r3
 8000abc:	4264      	negs	r4, r4
 8000abe:	1b09      	subs	r1, r1, r4
 8000ac0:	2480      	movs	r4, #128	@ 0x80
 8000ac2:	0424      	lsls	r4, r4, #16
 8000ac4:	4221      	tst	r1, r4
 8000ac6:	d077      	beq.n	8000bb8 <__aeabi_dadd+0x6e8>
 8000ac8:	1a10      	subs	r0, r2, r0
 8000aca:	4282      	cmp	r2, r0
 8000acc:	4192      	sbcs	r2, r2
 8000ace:	0007      	movs	r7, r0
 8000ad0:	1b9e      	subs	r6, r3, r6
 8000ad2:	4252      	negs	r2, r2
 8000ad4:	1ab6      	subs	r6, r6, r2
 8000ad6:	4337      	orrs	r7, r6
 8000ad8:	d000      	beq.n	8000adc <__aeabi_dadd+0x60c>
 8000ada:	e0a0      	b.n	8000c1e <__aeabi_dadd+0x74e>
 8000adc:	4665      	mov	r5, ip
 8000ade:	2400      	movs	r4, #0
 8000ae0:	2600      	movs	r6, #0
 8000ae2:	e63e      	b.n	8000762 <__aeabi_dadd+0x292>
 8000ae4:	075f      	lsls	r7, r3, #29
 8000ae6:	08d2      	lsrs	r2, r2, #3
 8000ae8:	4665      	mov	r5, ip
 8000aea:	4317      	orrs	r7, r2
 8000aec:	08d8      	lsrs	r0, r3, #3
 8000aee:	e653      	b.n	8000798 <__aeabi_dadd+0x2c8>
 8000af0:	1881      	adds	r1, r0, r2
 8000af2:	4291      	cmp	r1, r2
 8000af4:	4192      	sbcs	r2, r2
 8000af6:	18f0      	adds	r0, r6, r3
 8000af8:	4252      	negs	r2, r2
 8000afa:	1880      	adds	r0, r0, r2
 8000afc:	0203      	lsls	r3, r0, #8
 8000afe:	d500      	bpl.n	8000b02 <__aeabi_dadd+0x632>
 8000b00:	e768      	b.n	80009d4 <__aeabi_dadd+0x504>
 8000b02:	0747      	lsls	r7, r0, #29
 8000b04:	08c9      	lsrs	r1, r1, #3
 8000b06:	430f      	orrs	r7, r1
 8000b08:	08c0      	lsrs	r0, r0, #3
 8000b0a:	2101      	movs	r1, #1
 8000b0c:	e617      	b.n	800073e <__aeabi_dadd+0x26e>
 8000b0e:	08d2      	lsrs	r2, r2, #3
 8000b10:	075f      	lsls	r7, r3, #29
 8000b12:	4317      	orrs	r7, r2
 8000b14:	08d8      	lsrs	r0, r3, #3
 8000b16:	e63f      	b.n	8000798 <__aeabi_dadd+0x2c8>
 8000b18:	000c      	movs	r4, r1
 8000b1a:	2600      	movs	r6, #0
 8000b1c:	2700      	movs	r7, #0
 8000b1e:	e620      	b.n	8000762 <__aeabi_dadd+0x292>
 8000b20:	2900      	cmp	r1, #0
 8000b22:	d156      	bne.n	8000bd2 <__aeabi_dadd+0x702>
 8000b24:	075f      	lsls	r7, r3, #29
 8000b26:	08d2      	lsrs	r2, r2, #3
 8000b28:	4317      	orrs	r7, r2
 8000b2a:	08d8      	lsrs	r0, r3, #3
 8000b2c:	e634      	b.n	8000798 <__aeabi_dadd+0x2c8>
 8000b2e:	000c      	movs	r4, r1
 8000b30:	001e      	movs	r6, r3
 8000b32:	08d0      	lsrs	r0, r2, #3
 8000b34:	e629      	b.n	800078a <__aeabi_dadd+0x2ba>
 8000b36:	08c1      	lsrs	r1, r0, #3
 8000b38:	0770      	lsls	r0, r6, #29
 8000b3a:	4301      	orrs	r1, r0
 8000b3c:	08f0      	lsrs	r0, r6, #3
 8000b3e:	2f00      	cmp	r7, #0
 8000b40:	d062      	beq.n	8000c08 <__aeabi_dadd+0x738>
 8000b42:	2480      	movs	r4, #128	@ 0x80
 8000b44:	0324      	lsls	r4, r4, #12
 8000b46:	4220      	tst	r0, r4
 8000b48:	d007      	beq.n	8000b5a <__aeabi_dadd+0x68a>
 8000b4a:	08de      	lsrs	r6, r3, #3
 8000b4c:	4226      	tst	r6, r4
 8000b4e:	d104      	bne.n	8000b5a <__aeabi_dadd+0x68a>
 8000b50:	4665      	mov	r5, ip
 8000b52:	0030      	movs	r0, r6
 8000b54:	08d1      	lsrs	r1, r2, #3
 8000b56:	075b      	lsls	r3, r3, #29
 8000b58:	4319      	orrs	r1, r3
 8000b5a:	0f4f      	lsrs	r7, r1, #29
 8000b5c:	00c9      	lsls	r1, r1, #3
 8000b5e:	08c9      	lsrs	r1, r1, #3
 8000b60:	077f      	lsls	r7, r7, #29
 8000b62:	430f      	orrs	r7, r1
 8000b64:	e618      	b.n	8000798 <__aeabi_dadd+0x2c8>
 8000b66:	000c      	movs	r4, r1
 8000b68:	0030      	movs	r0, r6
 8000b6a:	3c20      	subs	r4, #32
 8000b6c:	40e0      	lsrs	r0, r4
 8000b6e:	4684      	mov	ip, r0
 8000b70:	2920      	cmp	r1, #32
 8000b72:	d005      	beq.n	8000b80 <__aeabi_dadd+0x6b0>
 8000b74:	2440      	movs	r4, #64	@ 0x40
 8000b76:	1a61      	subs	r1, r4, r1
 8000b78:	408e      	lsls	r6, r1
 8000b7a:	4649      	mov	r1, r9
 8000b7c:	4331      	orrs	r1, r6
 8000b7e:	4689      	mov	r9, r1
 8000b80:	4648      	mov	r0, r9
 8000b82:	1e41      	subs	r1, r0, #1
 8000b84:	4188      	sbcs	r0, r1
 8000b86:	4661      	mov	r1, ip
 8000b88:	0007      	movs	r7, r0
 8000b8a:	430f      	orrs	r7, r1
 8000b8c:	e630      	b.n	80007f0 <__aeabi_dadd+0x320>
 8000b8e:	2120      	movs	r1, #32
 8000b90:	2700      	movs	r7, #0
 8000b92:	1a09      	subs	r1, r1, r0
 8000b94:	e50e      	b.n	80005b4 <__aeabi_dadd+0xe4>
 8000b96:	001e      	movs	r6, r3
 8000b98:	2f00      	cmp	r7, #0
 8000b9a:	d000      	beq.n	8000b9e <__aeabi_dadd+0x6ce>
 8000b9c:	e522      	b.n	80005e4 <__aeabi_dadd+0x114>
 8000b9e:	2400      	movs	r4, #0
 8000ba0:	e758      	b.n	8000a54 <__aeabi_dadd+0x584>
 8000ba2:	2500      	movs	r5, #0
 8000ba4:	2400      	movs	r4, #0
 8000ba6:	2600      	movs	r6, #0
 8000ba8:	e5db      	b.n	8000762 <__aeabi_dadd+0x292>
 8000baa:	46c0      	nop			@ (mov r8, r8)
 8000bac:	000007fe 	.word	0x000007fe
 8000bb0:	000007ff 	.word	0x000007ff
 8000bb4:	ff7fffff 	.word	0xff7fffff
 8000bb8:	4647      	mov	r7, r8
 8000bba:	430f      	orrs	r7, r1
 8000bbc:	d100      	bne.n	8000bc0 <__aeabi_dadd+0x6f0>
 8000bbe:	e747      	b.n	8000a50 <__aeabi_dadd+0x580>
 8000bc0:	000e      	movs	r6, r1
 8000bc2:	46c1      	mov	r9, r8
 8000bc4:	e5b5      	b.n	8000732 <__aeabi_dadd+0x262>
 8000bc6:	08df      	lsrs	r7, r3, #3
 8000bc8:	0764      	lsls	r4, r4, #29
 8000bca:	2102      	movs	r1, #2
 8000bcc:	4327      	orrs	r7, r4
 8000bce:	0900      	lsrs	r0, r0, #4
 8000bd0:	e5b5      	b.n	800073e <__aeabi_dadd+0x26e>
 8000bd2:	0019      	movs	r1, r3
 8000bd4:	08c0      	lsrs	r0, r0, #3
 8000bd6:	0777      	lsls	r7, r6, #29
 8000bd8:	4307      	orrs	r7, r0
 8000bda:	4311      	orrs	r1, r2
 8000bdc:	08f0      	lsrs	r0, r6, #3
 8000bde:	2900      	cmp	r1, #0
 8000be0:	d100      	bne.n	8000be4 <__aeabi_dadd+0x714>
 8000be2:	e5d9      	b.n	8000798 <__aeabi_dadd+0x2c8>
 8000be4:	2180      	movs	r1, #128	@ 0x80
 8000be6:	0309      	lsls	r1, r1, #12
 8000be8:	4208      	tst	r0, r1
 8000bea:	d007      	beq.n	8000bfc <__aeabi_dadd+0x72c>
 8000bec:	08dc      	lsrs	r4, r3, #3
 8000bee:	420c      	tst	r4, r1
 8000bf0:	d104      	bne.n	8000bfc <__aeabi_dadd+0x72c>
 8000bf2:	08d2      	lsrs	r2, r2, #3
 8000bf4:	075b      	lsls	r3, r3, #29
 8000bf6:	431a      	orrs	r2, r3
 8000bf8:	0017      	movs	r7, r2
 8000bfa:	0020      	movs	r0, r4
 8000bfc:	0f7b      	lsrs	r3, r7, #29
 8000bfe:	00ff      	lsls	r7, r7, #3
 8000c00:	08ff      	lsrs	r7, r7, #3
 8000c02:	075b      	lsls	r3, r3, #29
 8000c04:	431f      	orrs	r7, r3
 8000c06:	e5c7      	b.n	8000798 <__aeabi_dadd+0x2c8>
 8000c08:	000f      	movs	r7, r1
 8000c0a:	e5c5      	b.n	8000798 <__aeabi_dadd+0x2c8>
 8000c0c:	4b12      	ldr	r3, [pc, #72]	@ (8000c58 <__aeabi_dadd+0x788>)
 8000c0e:	08d2      	lsrs	r2, r2, #3
 8000c10:	4033      	ands	r3, r6
 8000c12:	075f      	lsls	r7, r3, #29
 8000c14:	025b      	lsls	r3, r3, #9
 8000c16:	2401      	movs	r4, #1
 8000c18:	4317      	orrs	r7, r2
 8000c1a:	0b1e      	lsrs	r6, r3, #12
 8000c1c:	e5a1      	b.n	8000762 <__aeabi_dadd+0x292>
 8000c1e:	4226      	tst	r6, r4
 8000c20:	d012      	beq.n	8000c48 <__aeabi_dadd+0x778>
 8000c22:	4b0d      	ldr	r3, [pc, #52]	@ (8000c58 <__aeabi_dadd+0x788>)
 8000c24:	4665      	mov	r5, ip
 8000c26:	0002      	movs	r2, r0
 8000c28:	2401      	movs	r4, #1
 8000c2a:	401e      	ands	r6, r3
 8000c2c:	e4e6      	b.n	80005fc <__aeabi_dadd+0x12c>
 8000c2e:	0021      	movs	r1, r4
 8000c30:	e585      	b.n	800073e <__aeabi_dadd+0x26e>
 8000c32:	0017      	movs	r7, r2
 8000c34:	e5a8      	b.n	8000788 <__aeabi_dadd+0x2b8>
 8000c36:	003a      	movs	r2, r7
 8000c38:	e4d4      	b.n	80005e4 <__aeabi_dadd+0x114>
 8000c3a:	08db      	lsrs	r3, r3, #3
 8000c3c:	0764      	lsls	r4, r4, #29
 8000c3e:	431c      	orrs	r4, r3
 8000c40:	0027      	movs	r7, r4
 8000c42:	2102      	movs	r1, #2
 8000c44:	0900      	lsrs	r0, r0, #4
 8000c46:	e57a      	b.n	800073e <__aeabi_dadd+0x26e>
 8000c48:	08c0      	lsrs	r0, r0, #3
 8000c4a:	0777      	lsls	r7, r6, #29
 8000c4c:	4307      	orrs	r7, r0
 8000c4e:	4665      	mov	r5, ip
 8000c50:	2100      	movs	r1, #0
 8000c52:	08f0      	lsrs	r0, r6, #3
 8000c54:	e573      	b.n	800073e <__aeabi_dadd+0x26e>
 8000c56:	46c0      	nop			@ (mov r8, r8)
 8000c58:	ff7fffff 	.word	0xff7fffff

08000c5c <__aeabi_ddiv>:
 8000c5c:	b5f0      	push	{r4, r5, r6, r7, lr}
 8000c5e:	46de      	mov	lr, fp
 8000c60:	4645      	mov	r5, r8
 8000c62:	4657      	mov	r7, sl
 8000c64:	464e      	mov	r6, r9
 8000c66:	b5e0      	push	{r5, r6, r7, lr}
 8000c68:	b087      	sub	sp, #28
 8000c6a:	9200      	str	r2, [sp, #0]
 8000c6c:	9301      	str	r3, [sp, #4]
 8000c6e:	030b      	lsls	r3, r1, #12
 8000c70:	0b1b      	lsrs	r3, r3, #12
 8000c72:	469b      	mov	fp, r3
 8000c74:	0fca      	lsrs	r2, r1, #31
 8000c76:	004b      	lsls	r3, r1, #1
 8000c78:	0004      	movs	r4, r0
 8000c7a:	4680      	mov	r8, r0
 8000c7c:	0d5b      	lsrs	r3, r3, #21
 8000c7e:	9202      	str	r2, [sp, #8]
 8000c80:	d100      	bne.n	8000c84 <__aeabi_ddiv+0x28>
 8000c82:	e098      	b.n	8000db6 <__aeabi_ddiv+0x15a>
 8000c84:	4a7c      	ldr	r2, [pc, #496]	@ (8000e78 <__aeabi_ddiv+0x21c>)
 8000c86:	4293      	cmp	r3, r2
 8000c88:	d037      	beq.n	8000cfa <__aeabi_ddiv+0x9e>
 8000c8a:	4659      	mov	r1, fp
 8000c8c:	0f42      	lsrs	r2, r0, #29
 8000c8e:	00c9      	lsls	r1, r1, #3
 8000c90:	430a      	orrs	r2, r1
 8000c92:	2180      	movs	r1, #128	@ 0x80
 8000c94:	0409      	lsls	r1, r1, #16
 8000c96:	4311      	orrs	r1, r2
 8000c98:	00c2      	lsls	r2, r0, #3
 8000c9a:	4690      	mov	r8, r2
 8000c9c:	4a77      	ldr	r2, [pc, #476]	@ (8000e7c <__aeabi_ddiv+0x220>)
 8000c9e:	4689      	mov	r9, r1
 8000ca0:	4692      	mov	sl, r2
 8000ca2:	449a      	add	sl, r3
 8000ca4:	2300      	movs	r3, #0
 8000ca6:	2400      	movs	r4, #0
 8000ca8:	9303      	str	r3, [sp, #12]
 8000caa:	9e00      	ldr	r6, [sp, #0]
 8000cac:	9f01      	ldr	r7, [sp, #4]
 8000cae:	033b      	lsls	r3, r7, #12
 8000cb0:	0b1b      	lsrs	r3, r3, #12
 8000cb2:	469b      	mov	fp, r3
 8000cb4:	007b      	lsls	r3, r7, #1
 8000cb6:	0030      	movs	r0, r6
 8000cb8:	0d5b      	lsrs	r3, r3, #21
 8000cba:	0ffd      	lsrs	r5, r7, #31
 8000cbc:	2b00      	cmp	r3, #0
 8000cbe:	d059      	beq.n	8000d74 <__aeabi_ddiv+0x118>
 8000cc0:	4a6d      	ldr	r2, [pc, #436]	@ (8000e78 <__aeabi_ddiv+0x21c>)
 8000cc2:	4293      	cmp	r3, r2
 8000cc4:	d048      	beq.n	8000d58 <__aeabi_ddiv+0xfc>
 8000cc6:	4659      	mov	r1, fp
 8000cc8:	0f72      	lsrs	r2, r6, #29
 8000cca:	00c9      	lsls	r1, r1, #3
 8000ccc:	430a      	orrs	r2, r1
 8000cce:	2180      	movs	r1, #128	@ 0x80
 8000cd0:	0409      	lsls	r1, r1, #16
 8000cd2:	4311      	orrs	r1, r2
 8000cd4:	468b      	mov	fp, r1
 8000cd6:	4969      	ldr	r1, [pc, #420]	@ (8000e7c <__aeabi_ddiv+0x220>)
 8000cd8:	00f2      	lsls	r2, r6, #3
 8000cda:	468c      	mov	ip, r1
 8000cdc:	4651      	mov	r1, sl
 8000cde:	4463      	add	r3, ip
 8000ce0:	1acb      	subs	r3, r1, r3
 8000ce2:	469a      	mov	sl, r3
 8000ce4:	2100      	movs	r1, #0
 8000ce6:	9e02      	ldr	r6, [sp, #8]
 8000ce8:	406e      	eors	r6, r5
 8000cea:	b2f6      	uxtb	r6, r6
 8000cec:	2c0f      	cmp	r4, #15
 8000cee:	d900      	bls.n	8000cf2 <__aeabi_ddiv+0x96>
 8000cf0:	e0ce      	b.n	8000e90 <__aeabi_ddiv+0x234>
 8000cf2:	4b63      	ldr	r3, [pc, #396]	@ (8000e80 <__aeabi_ddiv+0x224>)
 8000cf4:	00a4      	lsls	r4, r4, #2
 8000cf6:	591b      	ldr	r3, [r3, r4]
 8000cf8:	469f      	mov	pc, r3
 8000cfa:	465a      	mov	r2, fp
 8000cfc:	4302      	orrs	r2, r0
 8000cfe:	4691      	mov	r9, r2
 8000d00:	d000      	beq.n	8000d04 <__aeabi_ddiv+0xa8>
 8000d02:	e090      	b.n	8000e26 <__aeabi_ddiv+0x1ca>
 8000d04:	469a      	mov	sl, r3
 8000d06:	2302      	movs	r3, #2
 8000d08:	4690      	mov	r8, r2
 8000d0a:	2408      	movs	r4, #8
 8000d0c:	9303      	str	r3, [sp, #12]
 8000d0e:	e7cc      	b.n	8000caa <__aeabi_ddiv+0x4e>
 8000d10:	46cb      	mov	fp, r9
 8000d12:	4642      	mov	r2, r8
 8000d14:	9d02      	ldr	r5, [sp, #8]
 8000d16:	9903      	ldr	r1, [sp, #12]
 8000d18:	2902      	cmp	r1, #2
 8000d1a:	d100      	bne.n	8000d1e <__aeabi_ddiv+0xc2>
 8000d1c:	e1de      	b.n	80010dc <__aeabi_ddiv+0x480>
 8000d1e:	2903      	cmp	r1, #3
 8000d20:	d100      	bne.n	8000d24 <__aeabi_ddiv+0xc8>
 8000d22:	e08d      	b.n	8000e40 <__aeabi_ddiv+0x1e4>
 8000d24:	2901      	cmp	r1, #1
 8000d26:	d000      	beq.n	8000d2a <__aeabi_ddiv+0xce>
 8000d28:	e179      	b.n	800101e <__aeabi_ddiv+0x3c2>
 8000d2a:	002e      	movs	r6, r5
 8000d2c:	2200      	movs	r2, #0
 8000d2e:	2300      	movs	r3, #0
 8000d30:	2400      	movs	r4, #0
 8000d32:	4690      	mov	r8, r2
 8000d34:	051b      	lsls	r3, r3, #20
 8000d36:	4323      	orrs	r3, r4
 8000d38:	07f6      	lsls	r6, r6, #31
 8000d3a:	4333      	orrs	r3, r6
 8000d3c:	4640      	mov	r0, r8
 8000d3e:	0019      	movs	r1, r3
 8000d40:	b007      	add	sp, #28
 8000d42:	bcf0      	pop	{r4, r5, r6, r7}
 8000d44:	46bb      	mov	fp, r7
 8000d46:	46b2      	mov	sl, r6
 8000d48:	46a9      	mov	r9, r5
 8000d4a:	46a0      	mov	r8, r4
 8000d4c:	bdf0      	pop	{r4, r5, r6, r7, pc}
 8000d4e:	2200      	movs	r2, #0
 8000d50:	2400      	movs	r4, #0
 8000d52:	4690      	mov	r8, r2
 8000d54:	4b48      	ldr	r3, [pc, #288]	@ (8000e78 <__aeabi_ddiv+0x21c>)
 8000d56:	e7ed      	b.n	8000d34 <__aeabi_ddiv+0xd8>
 8000d58:	465a      	mov	r2, fp
 8000d5a:	9b00      	ldr	r3, [sp, #0]
 8000d5c:	431a      	orrs	r2, r3
 8000d5e:	4b49      	ldr	r3, [pc, #292]	@ (8000e84 <__aeabi_ddiv+0x228>)
 8000d60:	469c      	mov	ip, r3
 8000d62:	44e2      	add	sl, ip
 8000d64:	2a00      	cmp	r2, #0
 8000d66:	d159      	bne.n	8000e1c <__aeabi_ddiv+0x1c0>
 8000d68:	2302      	movs	r3, #2
 8000d6a:	431c      	orrs	r4, r3
 8000d6c:	2300      	movs	r3, #0
 8000d6e:	2102      	movs	r1, #2
 8000d70:	469b      	mov	fp, r3
 8000d72:	e7b8      	b.n	8000ce6 <__aeabi_ddiv+0x8a>
 8000d74:	465a      	mov	r2, fp
 8000d76:	9b00      	ldr	r3, [sp, #0]
 8000d78:	431a      	orrs	r2, r3
 8000d7a:	d049      	beq.n	8000e10 <__aeabi_ddiv+0x1b4>
 8000d7c:	465b      	mov	r3, fp
 8000d7e:	2b00      	cmp	r3, #0
 8000d80:	d100      	bne.n	8000d84 <__aeabi_ddiv+0x128>
 8000d82:	e19c      	b.n	80010be <__aeabi_ddiv+0x462>
 8000d84:	4658      	mov	r0, fp
 8000d86:	f001 fa3d 	bl	8002204 <__clzsi2>
 8000d8a:	0002      	movs	r2, r0
 8000d8c:	0003      	movs	r3, r0
 8000d8e:	3a0b      	subs	r2, #11
 8000d90:	271d      	movs	r7, #29
 8000d92:	9e00      	ldr	r6, [sp, #0]
 8000d94:	1aba      	subs	r2, r7, r2
 8000d96:	0019      	movs	r1, r3
 8000d98:	4658      	mov	r0, fp
 8000d9a:	40d6      	lsrs	r6, r2
 8000d9c:	3908      	subs	r1, #8
 8000d9e:	4088      	lsls	r0, r1
 8000da0:	0032      	movs	r2, r6
 8000da2:	4302      	orrs	r2, r0
 8000da4:	4693      	mov	fp, r2
 8000da6:	9a00      	ldr	r2, [sp, #0]
 8000da8:	408a      	lsls	r2, r1
 8000daa:	4937      	ldr	r1, [pc, #220]	@ (8000e88 <__aeabi_ddiv+0x22c>)
 8000dac:	4453      	add	r3, sl
 8000dae:	468a      	mov	sl, r1
 8000db0:	2100      	movs	r1, #0
 8000db2:	449a      	add	sl, r3
 8000db4:	e797      	b.n	8000ce6 <__aeabi_ddiv+0x8a>
 8000db6:	465b      	mov	r3, fp
 8000db8:	4303      	orrs	r3, r0
 8000dba:	4699      	mov	r9, r3
 8000dbc:	d021      	beq.n	8000e02 <__aeabi_ddiv+0x1a6>
 8000dbe:	465b      	mov	r3, fp
 8000dc0:	2b00      	cmp	r3, #0
 8000dc2:	d100      	bne.n	8000dc6 <__aeabi_ddiv+0x16a>
 8000dc4:	e169      	b.n	800109a <__aeabi_ddiv+0x43e>
 8000dc6:	4658      	mov	r0, fp
 8000dc8:	f001 fa1c 	bl	8002204 <__clzsi2>
 8000dcc:	230b      	movs	r3, #11
 8000dce:	425b      	negs	r3, r3
 8000dd0:	469c      	mov	ip, r3
 8000dd2:	0002      	movs	r2, r0
 8000dd4:	4484      	add	ip, r0
 8000dd6:	4666      	mov	r6, ip
 8000dd8:	231d      	movs	r3, #29
 8000dda:	1b9b      	subs	r3, r3, r6
 8000ddc:	0026      	movs	r6, r4
 8000dde:	0011      	movs	r1, r2
 8000de0:	4658      	mov	r0, fp
 8000de2:	40de      	lsrs	r6, r3
 8000de4:	3908      	subs	r1, #8
 8000de6:	4088      	lsls	r0, r1
 8000de8:	0033      	movs	r3, r6
 8000dea:	4303      	orrs	r3, r0
 8000dec:	4699      	mov	r9, r3
 8000dee:	0023      	movs	r3, r4
 8000df0:	408b      	lsls	r3, r1
 8000df2:	4698      	mov	r8, r3
 8000df4:	4b25      	ldr	r3, [pc, #148]	@ (8000e8c <__aeabi_ddiv+0x230>)
 8000df6:	2400      	movs	r4, #0
 8000df8:	1a9b      	subs	r3, r3, r2
 8000dfa:	469a      	mov	sl, r3
 8000dfc:	2300      	movs	r3, #0
 8000dfe:	9303      	str	r3, [sp, #12]
 8000e00:	e753      	b.n	8000caa <__aeabi_ddiv+0x4e>
 8000e02:	2300      	movs	r3, #0
 8000e04:	4698      	mov	r8, r3
 8000e06:	469a      	mov	sl, r3
 8000e08:	3301      	adds	r3, #1
 8000e0a:	2404      	movs	r4, #4
 8000e0c:	9303      	str	r3, [sp, #12]
 8000e0e:	e74c      	b.n	8000caa <__aeabi_ddiv+0x4e>
 8000e10:	2301      	movs	r3, #1
 8000e12:	431c      	orrs	r4, r3
 8000e14:	2300      	movs	r3, #0
 8000e16:	2101      	movs	r1, #1
 8000e18:	469b      	mov	fp, r3
 8000e1a:	e764      	b.n	8000ce6 <__aeabi_ddiv+0x8a>
 8000e1c:	2303      	movs	r3, #3
 8000e1e:	0032      	movs	r2, r6
 8000e20:	2103      	movs	r1, #3
 8000e22:	431c      	orrs	r4, r3
 8000e24:	e75f      	b.n	8000ce6 <__aeabi_ddiv+0x8a>
 8000e26:	469a      	mov	sl, r3
 8000e28:	2303      	movs	r3, #3
 8000e2a:	46d9      	mov	r9, fp
 8000e2c:	240c      	movs	r4, #12
 8000e2e:	9303      	str	r3, [sp, #12]
 8000e30:	e73b      	b.n	8000caa <__aeabi_ddiv+0x4e>
 8000e32:	2300      	movs	r3, #0
 8000e34:	2480      	movs	r4, #128	@ 0x80
 8000e36:	4698      	mov	r8, r3
 8000e38:	2600      	movs	r6, #0
 8000e3a:	4b0f      	ldr	r3, [pc, #60]	@ (8000e78 <__aeabi_ddiv+0x21c>)
 8000e3c:	0324      	lsls	r4, r4, #12
 8000e3e:	e779      	b.n	8000d34 <__aeabi_ddiv+0xd8>
 8000e40:	2480      	movs	r4, #128	@ 0x80
 8000e42:	465b      	mov	r3, fp
 8000e44:	0324      	lsls	r4, r4, #12
 8000e46:	431c      	orrs	r4, r3
 8000e48:	0324      	lsls	r4, r4, #12
 8000e4a:	002e      	movs	r6, r5
 8000e4c:	4690      	mov	r8, r2
 8000e4e:	4b0a      	ldr	r3, [pc, #40]	@ (8000e78 <__aeabi_ddiv+0x21c>)
 8000e50:	0b24      	lsrs	r4, r4, #12
 8000e52:	e76f      	b.n	8000d34 <__aeabi_ddiv+0xd8>
 8000e54:	2480      	movs	r4, #128	@ 0x80
 8000e56:	464b      	mov	r3, r9
 8000e58:	0324      	lsls	r4, r4, #12
 8000e5a:	4223      	tst	r3, r4
 8000e5c:	d002      	beq.n	8000e64 <__aeabi_ddiv+0x208>
 8000e5e:	465b      	mov	r3, fp
 8000e60:	4223      	tst	r3, r4
 8000e62:	d0f0      	beq.n	8000e46 <__aeabi_ddiv+0x1ea>
 8000e64:	2480      	movs	r4, #128	@ 0x80
 8000e66:	464b      	mov	r3, r9
 8000e68:	0324      	lsls	r4, r4, #12
 8000e6a:	431c      	orrs	r4, r3
 8000e6c:	0324      	lsls	r4, r4, #12
 8000e6e:	9e02      	ldr	r6, [sp, #8]
 8000e70:	4b01      	ldr	r3, [pc, #4]	@ (8000e78 <__aeabi_ddiv+0x21c>)
 8000e72:	0b24      	lsrs	r4, r4, #12
 8000e74:	e75e      	b.n	8000d34 <__aeabi_ddiv+0xd8>
 8000e76:	46c0      	nop			@ (mov r8, r8)
 8000e78:	000007ff 	.word	0x000007ff
 8000e7c:	fffffc01 	.word	0xfffffc01
 8000e80:	08003d00 	.word	0x08003d00
 8000e84:	fffff801 	.word	0xfffff801
 8000e88:	000003f3 	.word	0x000003f3
 8000e8c:	fffffc0d 	.word	0xfffffc0d
 8000e90:	45cb      	cmp	fp, r9
 8000e92:	d200      	bcs.n	8000e96 <__aeabi_ddiv+0x23a>
 8000e94:	e0f8      	b.n	8001088 <__aeabi_ddiv+0x42c>
 8000e96:	d100      	bne.n	8000e9a <__aeabi_ddiv+0x23e>
 8000e98:	e0f3      	b.n	8001082 <__aeabi_ddiv+0x426>
 8000e9a:	2301      	movs	r3, #1
 8000e9c:	425b      	negs	r3, r3
 8000e9e:	469c      	mov	ip, r3
 8000ea0:	4644      	mov	r4, r8
 8000ea2:	4648      	mov	r0, r9
 8000ea4:	2500      	movs	r5, #0
 8000ea6:	44e2      	add	sl, ip
 8000ea8:	465b      	mov	r3, fp
 8000eaa:	0e17      	lsrs	r7, r2, #24
 8000eac:	021b      	lsls	r3, r3, #8
 8000eae:	431f      	orrs	r7, r3
 8000eb0:	0c19      	lsrs	r1, r3, #16
 8000eb2:	043b      	lsls	r3, r7, #16
 8000eb4:	0212      	lsls	r2, r2, #8
 8000eb6:	9700      	str	r7, [sp, #0]
 8000eb8:	0c1f      	lsrs	r7, r3, #16
 8000eba:	4691      	mov	r9, r2
 8000ebc:	9102      	str	r1, [sp, #8]
 8000ebe:	9703      	str	r7, [sp, #12]
 8000ec0:	f7ff f9a8 	bl	8000214 <__aeabi_uidivmod>
 8000ec4:	0002      	movs	r2, r0
 8000ec6:	437a      	muls	r2, r7
 8000ec8:	040b      	lsls	r3, r1, #16
 8000eca:	0c21      	lsrs	r1, r4, #16
 8000ecc:	4680      	mov	r8, r0
 8000ece:	4319      	orrs	r1, r3
 8000ed0:	428a      	cmp	r2, r1
 8000ed2:	d909      	bls.n	8000ee8 <__aeabi_ddiv+0x28c>
 8000ed4:	9f00      	ldr	r7, [sp, #0]
 8000ed6:	2301      	movs	r3, #1
 8000ed8:	46bc      	mov	ip, r7
 8000eda:	425b      	negs	r3, r3
 8000edc:	4461      	add	r1, ip
 8000ede:	469c      	mov	ip, r3
 8000ee0:	44e0      	add	r8, ip
 8000ee2:	428f      	cmp	r7, r1
 8000ee4:	d800      	bhi.n	8000ee8 <__aeabi_ddiv+0x28c>
 8000ee6:	e15c      	b.n	80011a2 <__aeabi_ddiv+0x546>
 8000ee8:	1a88      	subs	r0, r1, r2
 8000eea:	9902      	ldr	r1, [sp, #8]
 8000eec:	f7ff f992 	bl	8000214 <__aeabi_uidivmod>
 8000ef0:	9a03      	ldr	r2, [sp, #12]
 8000ef2:	0424      	lsls	r4, r4, #16
 8000ef4:	4342      	muls	r2, r0
 8000ef6:	0409      	lsls	r1, r1, #16
 8000ef8:	0c24      	lsrs	r4, r4, #16
 8000efa:	0003      	movs	r3, r0
 8000efc:	430c      	orrs	r4, r1
 8000efe:	42a2      	cmp	r2, r4
 8000f00:	d906      	bls.n	8000f10 <__aeabi_ddiv+0x2b4>
 8000f02:	9900      	ldr	r1, [sp, #0]
 8000f04:	3b01      	subs	r3, #1
 8000f06:	468c      	mov	ip, r1
 8000f08:	4464      	add	r4, ip
 8000f0a:	42a1      	cmp	r1, r4
 8000f0c:	d800      	bhi.n	8000f10 <__aeabi_ddiv+0x2b4>
 8000f0e:	e142      	b.n	8001196 <__aeabi_ddiv+0x53a>
 8000f10:	1aa0      	subs	r0, r4, r2
 8000f12:	4642      	mov	r2, r8
 8000f14:	0412      	lsls	r2, r2, #16
 8000f16:	431a      	orrs	r2, r3
 8000f18:	4693      	mov	fp, r2
 8000f1a:	464b      	mov	r3, r9
 8000f1c:	4659      	mov	r1, fp
 8000f1e:	0c1b      	lsrs	r3, r3, #16
 8000f20:	001f      	movs	r7, r3
 8000f22:	9304      	str	r3, [sp, #16]
 8000f24:	040b      	lsls	r3, r1, #16
 8000f26:	4649      	mov	r1, r9
 8000f28:	0409      	lsls	r1, r1, #16
 8000f2a:	0c09      	lsrs	r1, r1, #16
 8000f2c:	000c      	movs	r4, r1
 8000f2e:	0c1b      	lsrs	r3, r3, #16
 8000f30:	435c      	muls	r4, r3
 8000f32:	0c12      	lsrs	r2, r2, #16
 8000f34:	437b      	muls	r3, r7
 8000f36:	4688      	mov	r8, r1
 8000f38:	4351      	muls	r1, r2
 8000f3a:	437a      	muls	r2, r7
 8000f3c:	0c27      	lsrs	r7, r4, #16
 8000f3e:	46bc      	mov	ip, r7
 8000f40:	185b      	adds	r3, r3, r1
 8000f42:	4463      	add	r3, ip
 8000f44:	4299      	cmp	r1, r3
 8000f46:	d903      	bls.n	8000f50 <__aeabi_ddiv+0x2f4>
 8000f48:	2180      	movs	r1, #128	@ 0x80
 8000f4a:	0249      	lsls	r1, r1, #9
 8000f4c:	468c      	mov	ip, r1
 8000f4e:	4462      	add	r2, ip
 8000f50:	0c19      	lsrs	r1, r3, #16
 8000f52:	0424      	lsls	r4, r4, #16
 8000f54:	041b      	lsls	r3, r3, #16
 8000f56:	0c24      	lsrs	r4, r4, #16
 8000f58:	188a      	adds	r2, r1, r2
 8000f5a:	191c      	adds	r4, r3, r4
 8000f5c:	4290      	cmp	r0, r2
 8000f5e:	d302      	bcc.n	8000f66 <__aeabi_ddiv+0x30a>
 8000f60:	d116      	bne.n	8000f90 <__aeabi_ddiv+0x334>
 8000f62:	42a5      	cmp	r5, r4
 8000f64:	d214      	bcs.n	8000f90 <__aeabi_ddiv+0x334>
 8000f66:	465b      	mov	r3, fp
 8000f68:	9f00      	ldr	r7, [sp, #0]
 8000f6a:	3b01      	subs	r3, #1
 8000f6c:	444d      	add	r5, r9
 8000f6e:	9305      	str	r3, [sp, #20]
 8000f70:	454d      	cmp	r5, r9
 8000f72:	419b      	sbcs	r3, r3
 8000f74:	46bc      	mov	ip, r7
 8000f76:	425b      	negs	r3, r3
 8000f78:	4463      	add	r3, ip
 8000f7a:	18c0      	adds	r0, r0, r3
 8000f7c:	4287      	cmp	r7, r0
 8000f7e:	d300      	bcc.n	8000f82 <__aeabi_ddiv+0x326>
 8000f80:	e102      	b.n	8001188 <__aeabi_ddiv+0x52c>
 8000f82:	4282      	cmp	r2, r0
 8000f84:	d900      	bls.n	8000f88 <__aeabi_ddiv+0x32c>
 8000f86:	e129      	b.n	80011dc <__aeabi_ddiv+0x580>
 8000f88:	d100      	bne.n	8000f8c <__aeabi_ddiv+0x330>
 8000f8a:	e124      	b.n	80011d6 <__aeabi_ddiv+0x57a>
 8000f8c:	9b05      	ldr	r3, [sp, #20]
 8000f8e:	469b      	mov	fp, r3
 8000f90:	1b2c      	subs	r4, r5, r4
 8000f92:	42a5      	cmp	r5, r4
 8000f94:	41ad      	sbcs	r5, r5
 8000f96:	9b00      	ldr	r3, [sp, #0]
 8000f98:	1a80      	subs	r0, r0, r2
 8000f9a:	426d      	negs	r5, r5
 8000f9c:	1b40      	subs	r0, r0, r5
 8000f9e:	4283      	cmp	r3, r0
 8000fa0:	d100      	bne.n	8000fa4 <__aeabi_ddiv+0x348>
 8000fa2:	e10f      	b.n	80011c4 <__aeabi_ddiv+0x568>
 8000fa4:	9902      	ldr	r1, [sp, #8]
 8000fa6:	f7ff f935 	bl	8000214 <__aeabi_uidivmod>
 8000faa:	9a03      	ldr	r2, [sp, #12]
 8000fac:	040b      	lsls	r3, r1, #16
 8000fae:	4342      	muls	r2, r0
 8000fb0:	0c21      	lsrs	r1, r4, #16
 8000fb2:	0005      	movs	r5, r0
 8000fb4:	4319      	orrs	r1, r3
 8000fb6:	428a      	cmp	r2, r1
 8000fb8:	d900      	bls.n	8000fbc <__aeabi_ddiv+0x360>
 8000fba:	e0cb      	b.n	8001154 <__aeabi_ddiv+0x4f8>
 8000fbc:	1a88      	subs	r0, r1, r2
 8000fbe:	9902      	ldr	r1, [sp, #8]
 8000fc0:	f7ff f928 	bl	8000214 <__aeabi_uidivmod>
 8000fc4:	9a03      	ldr	r2, [sp, #12]
 8000fc6:	0424      	lsls	r4, r4, #16
 8000fc8:	4342      	muls	r2, r0
 8000fca:	0409      	lsls	r1, r1, #16
 8000fcc:	0c24      	lsrs	r4, r4, #16
 8000fce:	0003      	movs	r3, r0
 8000fd0:	430c      	orrs	r4, r1
 8000fd2:	42a2      	cmp	r2, r4
 8000fd4:	d900      	bls.n	8000fd8 <__aeabi_ddiv+0x37c>
 8000fd6:	e0ca      	b.n	800116e <__aeabi_ddiv+0x512>
 8000fd8:	4641      	mov	r1, r8
 8000fda:	1aa4      	subs	r4, r4, r2
 8000fdc:	042a      	lsls	r2, r5, #16
 8000fde:	431a      	orrs	r2, r3
 8000fe0:	9f04      	ldr	r7, [sp, #16]
 8000fe2:	0413      	lsls	r3, r2, #16
 8000fe4:	0c1b      	lsrs	r3, r3, #16
 8000fe6:	4359      	muls	r1, r3
 8000fe8:	4640      	mov	r0, r8
 8000fea:	437b      	muls	r3, r7
 8000fec:	469c      	mov	ip, r3
 8000fee:	0c15      	lsrs	r5, r2, #16
 8000ff0:	4368      	muls	r0, r5
 8000ff2:	0c0b      	lsrs	r3, r1, #16
 8000ff4:	4484      	add	ip, r0
 8000ff6:	4463      	add	r3, ip
 8000ff8:	437d      	muls	r5, r7
 8000ffa:	4298      	cmp	r0, r3
 8000ffc:	d903      	bls.n	8001006 <__aeabi_ddiv+0x3aa>
 8000ffe:	2080      	movs	r0, #128	@ 0x80
 8001000:	0240      	lsls	r0, r0, #9
 8001002:	4684      	mov	ip, r0
 8001004:	4465      	add	r5, ip
 8001006:	0c18      	lsrs	r0, r3, #16
 8001008:	0409      	lsls	r1, r1, #16
 800100a:	041b      	lsls	r3, r3, #16
 800100c:	0c09      	lsrs	r1, r1, #16
 800100e:	1940      	adds	r0, r0, r5
 8001010:	185b      	adds	r3, r3, r1
 8001012:	4284      	cmp	r4, r0
 8001014:	d327      	bcc.n	8001066 <__aeabi_ddiv+0x40a>
 8001016:	d023      	beq.n	8001060 <__aeabi_ddiv+0x404>
 8001018:	2301      	movs	r3, #1
 800101a:	0035      	movs	r5, r6
 800101c:	431a      	orrs	r2, r3
 800101e:	4b94      	ldr	r3, [pc, #592]	@ (8001270 <__aeabi_ddiv+0x614>)
 8001020:	4453      	add	r3, sl
 8001022:	2b00      	cmp	r3, #0
 8001024:	dd60      	ble.n	80010e8 <__aeabi_ddiv+0x48c>
 8001026:	0751      	lsls	r1, r2, #29
 8001028:	d000      	beq.n	800102c <__aeabi_ddiv+0x3d0>
 800102a:	e086      	b.n	800113a <__aeabi_ddiv+0x4de>
 800102c:	002e      	movs	r6, r5
 800102e:	08d1      	lsrs	r1, r2, #3
 8001030:	465a      	mov	r2, fp
 8001032:	01d2      	lsls	r2, r2, #7
 8001034:	d506      	bpl.n	8001044 <__aeabi_ddiv+0x3e8>
 8001036:	465a      	mov	r2, fp
 8001038:	4b8e      	ldr	r3, [pc, #568]	@ (8001274 <__aeabi_ddiv+0x618>)
 800103a:	401a      	ands	r2, r3
 800103c:	2380      	movs	r3, #128	@ 0x80
 800103e:	4693      	mov	fp, r2
 8001040:	00db      	lsls	r3, r3, #3
 8001042:	4453      	add	r3, sl
 8001044:	4a8c      	ldr	r2, [pc, #560]	@ (8001278 <__aeabi_ddiv+0x61c>)
 8001046:	4293      	cmp	r3, r2
 8001048:	dd00      	ble.n	800104c <__aeabi_ddiv+0x3f0>
 800104a:	e680      	b.n	8000d4e <__aeabi_ddiv+0xf2>
 800104c:	465a      	mov	r2, fp
 800104e:	0752      	lsls	r2, r2, #29
 8001050:	430a      	orrs	r2, r1
 8001052:	4690      	mov	r8, r2
 8001054:	465a      	mov	r2, fp
 8001056:	055b      	lsls	r3, r3, #21
 8001058:	0254      	lsls	r4, r2, #9
 800105a:	0b24      	lsrs	r4, r4, #12
 800105c:	0d5b      	lsrs	r3, r3, #21
 800105e:	e669      	b.n	8000d34 <__aeabi_ddiv+0xd8>
 8001060:	0035      	movs	r5, r6
 8001062:	2b00      	cmp	r3, #0
 8001064:	d0db      	beq.n	800101e <__aeabi_ddiv+0x3c2>
 8001066:	9d00      	ldr	r5, [sp, #0]
 8001068:	1e51      	subs	r1, r2, #1
 800106a:	46ac      	mov	ip, r5
 800106c:	4464      	add	r4, ip
 800106e:	42ac      	cmp	r4, r5
 8001070:	d200      	bcs.n	8001074 <__aeabi_ddiv+0x418>
 8001072:	e09e      	b.n	80011b2 <__aeabi_ddiv+0x556>
 8001074:	4284      	cmp	r4, r0
 8001076:	d200      	bcs.n	800107a <__aeabi_ddiv+0x41e>
 8001078:	e0e1      	b.n	800123e <__aeabi_ddiv+0x5e2>
 800107a:	d100      	bne.n	800107e <__aeabi_ddiv+0x422>
 800107c:	e0ee      	b.n	800125c <__aeabi_ddiv+0x600>
 800107e:	000a      	movs	r2, r1
 8001080:	e7ca      	b.n	8001018 <__aeabi_ddiv+0x3bc>
 8001082:	4542      	cmp	r2, r8
 8001084:	d900      	bls.n	8001088 <__aeabi_ddiv+0x42c>
 8001086:	e708      	b.n	8000e9a <__aeabi_ddiv+0x23e>
 8001088:	464b      	mov	r3, r9
 800108a:	07dc      	lsls	r4, r3, #31
 800108c:	0858      	lsrs	r0, r3, #1
 800108e:	4643      	mov	r3, r8
 8001090:	085b      	lsrs	r3, r3, #1
 8001092:	431c      	orrs	r4, r3
 8001094:	4643      	mov	r3, r8
 8001096:	07dd      	lsls	r5, r3, #31
 8001098:	e706      	b.n	8000ea8 <__aeabi_ddiv+0x24c>
 800109a:	f001 f8b3 	bl	8002204 <__clzsi2>
 800109e:	2315      	movs	r3, #21
 80010a0:	469c      	mov	ip, r3
 80010a2:	4484      	add	ip, r0
 80010a4:	0002      	movs	r2, r0
 80010a6:	4663      	mov	r3, ip
 80010a8:	3220      	adds	r2, #32
 80010aa:	2b1c      	cmp	r3, #28
 80010ac:	dc00      	bgt.n	80010b0 <__aeabi_ddiv+0x454>
 80010ae:	e692      	b.n	8000dd6 <__aeabi_ddiv+0x17a>
 80010b0:	0023      	movs	r3, r4
 80010b2:	3808      	subs	r0, #8
 80010b4:	4083      	lsls	r3, r0
 80010b6:	4699      	mov	r9, r3
 80010b8:	2300      	movs	r3, #0
 80010ba:	4698      	mov	r8, r3
 80010bc:	e69a      	b.n	8000df4 <__aeabi_ddiv+0x198>
 80010be:	f001 f8a1 	bl	8002204 <__clzsi2>
 80010c2:	0002      	movs	r2, r0
 80010c4:	0003      	movs	r3, r0
 80010c6:	3215      	adds	r2, #21
 80010c8:	3320      	adds	r3, #32
 80010ca:	2a1c      	cmp	r2, #28
 80010cc:	dc00      	bgt.n	80010d0 <__aeabi_ddiv+0x474>
 80010ce:	e65f      	b.n	8000d90 <__aeabi_ddiv+0x134>
 80010d0:	9900      	ldr	r1, [sp, #0]
 80010d2:	3808      	subs	r0, #8
 80010d4:	4081      	lsls	r1, r0
 80010d6:	2200      	movs	r2, #0
 80010d8:	468b      	mov	fp, r1
 80010da:	e666      	b.n	8000daa <__aeabi_ddiv+0x14e>
 80010dc:	2200      	movs	r2, #0
 80010de:	002e      	movs	r6, r5
 80010e0:	2400      	movs	r4, #0
 80010e2:	4690      	mov	r8, r2
 80010e4:	4b65      	ldr	r3, [pc, #404]	@ (800127c <__aeabi_ddiv+0x620>)
 80010e6:	e625      	b.n	8000d34 <__aeabi_ddiv+0xd8>
 80010e8:	002e      	movs	r6, r5
 80010ea:	2101      	movs	r1, #1
 80010ec:	1ac9      	subs	r1, r1, r3
 80010ee:	2938      	cmp	r1, #56	@ 0x38
 80010f0:	dd00      	ble.n	80010f4 <__aeabi_ddiv+0x498>
 80010f2:	e61b      	b.n	8000d2c <__aeabi_ddiv+0xd0>
 80010f4:	291f      	cmp	r1, #31
 80010f6:	dc7e      	bgt.n	80011f6 <__aeabi_ddiv+0x59a>
 80010f8:	4861      	ldr	r0, [pc, #388]	@ (8001280 <__aeabi_ddiv+0x624>)
 80010fa:	0014      	movs	r4, r2
 80010fc:	4450      	add	r0, sl
 80010fe:	465b      	mov	r3, fp
 8001100:	4082      	lsls	r2, r0
 8001102:	4083      	lsls	r3, r0
 8001104:	40cc      	lsrs	r4, r1
 8001106:	1e50      	subs	r0, r2, #1
 8001108:	4182      	sbcs	r2, r0
 800110a:	4323      	orrs	r3, r4
 800110c:	431a      	orrs	r2, r3
 800110e:	465b      	mov	r3, fp
 8001110:	40cb      	lsrs	r3, r1
 8001112:	0751      	lsls	r1, r2, #29
 8001114:	d009      	beq.n	800112a <__aeabi_ddiv+0x4ce>
 8001116:	210f      	movs	r1, #15
 8001118:	4011      	ands	r1, r2
 800111a:	2904      	cmp	r1, #4
 800111c:	d005      	beq.n	800112a <__aeabi_ddiv+0x4ce>
 800111e:	1d11      	adds	r1, r2, #4
 8001120:	4291      	cmp	r1, r2
 8001122:	4192      	sbcs	r2, r2
 8001124:	4252      	negs	r2, r2
 8001126:	189b      	adds	r3, r3, r2
 8001128:	000a      	movs	r2, r1
 800112a:	0219      	lsls	r1, r3, #8
 800112c:	d400      	bmi.n	8001130 <__aeabi_ddiv+0x4d4>
 800112e:	e09b      	b.n	8001268 <__aeabi_ddiv+0x60c>
 8001130:	2200      	movs	r2, #0
 8001132:	2301      	movs	r3, #1
 8001134:	2400      	movs	r4, #0
 8001136:	4690      	mov	r8, r2
 8001138:	e5fc      	b.n	8000d34 <__aeabi_ddiv+0xd8>
 800113a:	210f      	movs	r1, #15
 800113c:	4011      	ands	r1, r2
 800113e:	2904      	cmp	r1, #4
 8001140:	d100      	bne.n	8001144 <__aeabi_ddiv+0x4e8>
 8001142:	e773      	b.n	800102c <__aeabi_ddiv+0x3d0>
 8001144:	1d11      	adds	r1, r2, #4
 8001146:	4291      	cmp	r1, r2
 8001148:	4192      	sbcs	r2, r2
 800114a:	4252      	negs	r2, r2
 800114c:	002e      	movs	r6, r5
 800114e:	08c9      	lsrs	r1, r1, #3
 8001150:	4493      	add	fp, r2
 8001152:	e76d      	b.n	8001030 <__aeabi_ddiv+0x3d4>
 8001154:	9b00      	ldr	r3, [sp, #0]
 8001156:	3d01      	subs	r5, #1
 8001158:	469c      	mov	ip, r3
 800115a:	4461      	add	r1, ip
 800115c:	428b      	cmp	r3, r1
 800115e:	d900      	bls.n	8001162 <__aeabi_ddiv+0x506>
 8001160:	e72c      	b.n	8000fbc <__aeabi_ddiv+0x360>
 8001162:	428a      	cmp	r2, r1
 8001164:	d800      	bhi.n	8001168 <__aeabi_ddiv+0x50c>
 8001166:	e729      	b.n	8000fbc <__aeabi_ddiv+0x360>
 8001168:	1e85      	subs	r5, r0, #2
 800116a:	4461      	add	r1, ip
 800116c:	e726      	b.n	8000fbc <__aeabi_ddiv+0x360>
 800116e:	9900      	ldr	r1, [sp, #0]
 8001170:	3b01      	subs	r3, #1
 8001172:	468c      	mov	ip, r1
 8001174:	4464      	add	r4, ip
 8001176:	42a1      	cmp	r1, r4
 8001178:	d900      	bls.n	800117c <__aeabi_ddiv+0x520>
 800117a:	e72d      	b.n	8000fd8 <__aeabi_ddiv+0x37c>
 800117c:	42a2      	cmp	r2, r4
 800117e:	d800      	bhi.n	8001182 <__aeabi_ddiv+0x526>
 8001180:	e72a      	b.n	8000fd8 <__aeabi_ddiv+0x37c>
 8001182:	1e83      	subs	r3, r0, #2
 8001184:	4464      	add	r4, ip
 8001186:	e727      	b.n	8000fd8 <__aeabi_ddiv+0x37c>
 8001188:	4287      	cmp	r7, r0
 800118a:	d000      	beq.n	800118e <__aeabi_ddiv+0x532>
 800118c:	e6fe      	b.n	8000f8c <__aeabi_ddiv+0x330>
 800118e:	45a9      	cmp	r9, r5
 8001190:	d900      	bls.n	8001194 <__aeabi_ddiv+0x538>
 8001192:	e6fb      	b.n	8000f8c <__aeabi_ddiv+0x330>
 8001194:	e6f5      	b.n	8000f82 <__aeabi_ddiv+0x326>
 8001196:	42a2      	cmp	r2, r4
 8001198:	d800      	bhi.n	800119c <__aeabi_ddiv+0x540>
 800119a:	e6b9      	b.n	8000f10 <__aeabi_ddiv+0x2b4>
 800119c:	1e83      	subs	r3, r0, #2
 800119e:	4464      	add	r4, ip
 80011a0:	e6b6      	b.n	8000f10 <__aeabi_ddiv+0x2b4>
 80011a2:	428a      	cmp	r2, r1
 80011a4:	d800      	bhi.n	80011a8 <__aeabi_ddiv+0x54c>
 80011a6:	e69f      	b.n	8000ee8 <__aeabi_ddiv+0x28c>
 80011a8:	46bc      	mov	ip, r7
 80011aa:	1e83      	subs	r3, r0, #2
 80011ac:	4698      	mov	r8, r3
 80011ae:	4461      	add	r1, ip
 80011b0:	e69a      	b.n	8000ee8 <__aeabi_ddiv+0x28c>
 80011b2:	000a      	movs	r2, r1
 80011b4:	4284      	cmp	r4, r0
 80011b6:	d000      	beq.n	80011ba <__aeabi_ddiv+0x55e>
 80011b8:	e72e      	b.n	8001018 <__aeabi_ddiv+0x3bc>
 80011ba:	454b      	cmp	r3, r9
 80011bc:	d000      	beq.n	80011c0 <__aeabi_ddiv+0x564>
 80011be:	e72b      	b.n	8001018 <__aeabi_ddiv+0x3bc>
 80011c0:	0035      	movs	r5, r6
 80011c2:	e72c      	b.n	800101e <__aeabi_ddiv+0x3c2>
 80011c4:	4b2a      	ldr	r3, [pc, #168]	@ (8001270 <__aeabi_ddiv+0x614>)
 80011c6:	4a2f      	ldr	r2, [pc, #188]	@ (8001284 <__aeabi_ddiv+0x628>)
 80011c8:	4453      	add	r3, sl
 80011ca:	4592      	cmp	sl, r2
 80011cc:	db43      	blt.n	8001256 <__aeabi_ddiv+0x5fa>
 80011ce:	2201      	movs	r2, #1
 80011d0:	2100      	movs	r1, #0
 80011d2:	4493      	add	fp, r2
 80011d4:	e72c      	b.n	8001030 <__aeabi_ddiv+0x3d4>
 80011d6:	42ac      	cmp	r4, r5
 80011d8:	d800      	bhi.n	80011dc <__aeabi_ddiv+0x580>
 80011da:	e6d7      	b.n	8000f8c <__aeabi_ddiv+0x330>
 80011dc:	2302      	movs	r3, #2
 80011de:	425b      	negs	r3, r3
 80011e0:	469c      	mov	ip, r3
 80011e2:	9900      	ldr	r1, [sp, #0]
 80011e4:	444d      	add	r5, r9
 80011e6:	454d      	cmp	r5, r9
 80011e8:	419b      	sbcs	r3, r3
 80011ea:	44e3      	add	fp, ip
 80011ec:	468c      	mov	ip, r1
 80011ee:	425b      	negs	r3, r3
 80011f0:	4463      	add	r3, ip
 80011f2:	18c0      	adds	r0, r0, r3
 80011f4:	e6cc      	b.n	8000f90 <__aeabi_ddiv+0x334>
 80011f6:	201f      	movs	r0, #31
 80011f8:	4240      	negs	r0, r0
 80011fa:	1ac3      	subs	r3, r0, r3
 80011fc:	4658      	mov	r0, fp
 80011fe:	40d8      	lsrs	r0, r3
 8001200:	2920      	cmp	r1, #32
 8001202:	d004      	beq.n	800120e <__aeabi_ddiv+0x5b2>
 8001204:	4659      	mov	r1, fp
 8001206:	4b20      	ldr	r3, [pc, #128]	@ (8001288 <__aeabi_ddiv+0x62c>)
 8001208:	4453      	add	r3, sl
 800120a:	4099      	lsls	r1, r3
 800120c:	430a      	orrs	r2, r1
 800120e:	1e53      	subs	r3, r2, #1
 8001210:	419a      	sbcs	r2, r3
 8001212:	2307      	movs	r3, #7
 8001214:	0019      	movs	r1, r3
 8001216:	4302      	orrs	r2, r0
 8001218:	2400      	movs	r4, #0
 800121a:	4011      	ands	r1, r2
 800121c:	4213      	tst	r3, r2
 800121e:	d009      	beq.n	8001234 <__aeabi_ddiv+0x5d8>
 8001220:	3308      	adds	r3, #8
 8001222:	4013      	ands	r3, r2
 8001224:	2b04      	cmp	r3, #4
 8001226:	d01d      	beq.n	8001264 <__aeabi_ddiv+0x608>
 8001228:	1d13      	adds	r3, r2, #4
 800122a:	4293      	cmp	r3, r2
 800122c:	4189      	sbcs	r1, r1
 800122e:	001a      	movs	r2, r3
 8001230:	4249      	negs	r1, r1
 8001232:	0749      	lsls	r1, r1, #29
 8001234:	08d2      	lsrs	r2, r2, #3
 8001236:	430a      	orrs	r2, r1
 8001238:	4690      	mov	r8, r2
 800123a:	2300      	movs	r3, #0
 800123c:	e57a      	b.n	8000d34 <__aeabi_ddiv+0xd8>
 800123e:	4649      	mov	r1, r9
 8001240:	9f00      	ldr	r7, [sp, #0]
 8001242:	004d      	lsls	r5, r1, #1
 8001244:	454d      	cmp	r5, r9
 8001246:	4189      	sbcs	r1, r1
 8001248:	46bc      	mov	ip, r7
 800124a:	4249      	negs	r1, r1
 800124c:	4461      	add	r1, ip
 800124e:	46a9      	mov	r9, r5
 8001250:	3a02      	subs	r2, #2
 8001252:	1864      	adds	r4, r4, r1
 8001254:	e7ae      	b.n	80011b4 <__aeabi_ddiv+0x558>
 8001256:	2201      	movs	r2, #1
 8001258:	4252      	negs	r2, r2
 800125a:	e746      	b.n	80010ea <__aeabi_ddiv+0x48e>
 800125c:	4599      	cmp	r9, r3
 800125e:	d3ee      	bcc.n	800123e <__aeabi_ddiv+0x5e2>
 8001260:	000a      	movs	r2, r1
 8001262:	e7aa      	b.n	80011ba <__aeabi_ddiv+0x55e>
 8001264:	2100      	movs	r1, #0
 8001266:	e7e5      	b.n	8001234 <__aeabi_ddiv+0x5d8>
 8001268:	0759      	lsls	r1, r3, #29
 800126a:	025b      	lsls	r3, r3, #9
 800126c:	0b1c      	lsrs	r4, r3, #12
 800126e:	e7e1      	b.n	8001234 <__aeabi_ddiv+0x5d8>
 8001270:	000003ff 	.word	0x000003ff
 8001274:	feffffff 	.word	0xfeffffff
 8001278:	000007fe 	.word	0x000007fe
 800127c:	000007ff 	.word	0x000007ff
 8001280:	0000041e 	.word	0x0000041e
 8001284:	fffffc02 	.word	0xfffffc02
 8001288:	0000043e 	.word	0x0000043e

0800128c <__aeabi_dmul>:
 800128c:	b5f0      	push	{r4, r5, r6, r7, lr}
 800128e:	4657      	mov	r7, sl
 8001290:	464e      	mov	r6, r9
 8001292:	46de      	mov	lr, fp
 8001294:	4645      	mov	r5, r8
 8001296:	b5e0      	push	{r5, r6, r7, lr}
 8001298:	001f      	movs	r7, r3
 800129a:	030b      	lsls	r3, r1, #12
 800129c:	0b1b      	lsrs	r3, r3, #12
 800129e:	0016      	movs	r6, r2
 80012a0:	469a      	mov	sl, r3
 80012a2:	0fca      	lsrs	r2, r1, #31
 80012a4:	004b      	lsls	r3, r1, #1
 80012a6:	0004      	movs	r4, r0
 80012a8:	4691      	mov	r9, r2
 80012aa:	b085      	sub	sp, #20
 80012ac:	0d5b      	lsrs	r3, r3, #21
 80012ae:	d100      	bne.n	80012b2 <__aeabi_dmul+0x26>
 80012b0:	e1cf      	b.n	8001652 <__aeabi_dmul+0x3c6>
 80012b2:	4acd      	ldr	r2, [pc, #820]	@ (80015e8 <__aeabi_dmul+0x35c>)
 80012b4:	4293      	cmp	r3, r2
 80012b6:	d055      	beq.n	8001364 <__aeabi_dmul+0xd8>
 80012b8:	4651      	mov	r1, sl
 80012ba:	0f42      	lsrs	r2, r0, #29
 80012bc:	00c9      	lsls	r1, r1, #3
 80012be:	430a      	orrs	r2, r1
 80012c0:	2180      	movs	r1, #128	@ 0x80
 80012c2:	0409      	lsls	r1, r1, #16
 80012c4:	4311      	orrs	r1, r2
 80012c6:	00c2      	lsls	r2, r0, #3
 80012c8:	4690      	mov	r8, r2
 80012ca:	4ac8      	ldr	r2, [pc, #800]	@ (80015ec <__aeabi_dmul+0x360>)
 80012cc:	468a      	mov	sl, r1
 80012ce:	4693      	mov	fp, r2
 80012d0:	449b      	add	fp, r3
 80012d2:	2300      	movs	r3, #0
 80012d4:	2500      	movs	r5, #0
 80012d6:	9302      	str	r3, [sp, #8]
 80012d8:	033c      	lsls	r4, r7, #12
 80012da:	007b      	lsls	r3, r7, #1
 80012dc:	0ffa      	lsrs	r2, r7, #31
 80012de:	9601      	str	r6, [sp, #4]
 80012e0:	0b24      	lsrs	r4, r4, #12
 80012e2:	0d5b      	lsrs	r3, r3, #21
 80012e4:	9200      	str	r2, [sp, #0]
 80012e6:	d100      	bne.n	80012ea <__aeabi_dmul+0x5e>
 80012e8:	e188      	b.n	80015fc <__aeabi_dmul+0x370>
 80012ea:	4abf      	ldr	r2, [pc, #764]	@ (80015e8 <__aeabi_dmul+0x35c>)
 80012ec:	4293      	cmp	r3, r2
 80012ee:	d100      	bne.n	80012f2 <__aeabi_dmul+0x66>
 80012f0:	e092      	b.n	8001418 <__aeabi_dmul+0x18c>
 80012f2:	4abe      	ldr	r2, [pc, #760]	@ (80015ec <__aeabi_dmul+0x360>)
 80012f4:	4694      	mov	ip, r2
 80012f6:	4463      	add	r3, ip
 80012f8:	449b      	add	fp, r3
 80012fa:	2d0a      	cmp	r5, #10
 80012fc:	dc42      	bgt.n	8001384 <__aeabi_dmul+0xf8>
 80012fe:	00e4      	lsls	r4, r4, #3
 8001300:	0f73      	lsrs	r3, r6, #29
 8001302:	4323      	orrs	r3, r4
 8001304:	2480      	movs	r4, #128	@ 0x80
 8001306:	4649      	mov	r1, r9
 8001308:	0424      	lsls	r4, r4, #16
 800130a:	431c      	orrs	r4, r3
 800130c:	00f3      	lsls	r3, r6, #3
 800130e:	9301      	str	r3, [sp, #4]
 8001310:	9b00      	ldr	r3, [sp, #0]
 8001312:	2000      	movs	r0, #0
 8001314:	4059      	eors	r1, r3
 8001316:	b2cb      	uxtb	r3, r1
 8001318:	9303      	str	r3, [sp, #12]
 800131a:	2d02      	cmp	r5, #2
 800131c:	dc00      	bgt.n	8001320 <__aeabi_dmul+0x94>
 800131e:	e094      	b.n	800144a <__aeabi_dmul+0x1be>
 8001320:	2301      	movs	r3, #1
 8001322:	40ab      	lsls	r3, r5
 8001324:	001d      	movs	r5, r3
 8001326:	23a6      	movs	r3, #166	@ 0xa6
 8001328:	002a      	movs	r2, r5
 800132a:	00db      	lsls	r3, r3, #3
 800132c:	401a      	ands	r2, r3
 800132e:	421d      	tst	r5, r3
 8001330:	d000      	beq.n	8001334 <__aeabi_dmul+0xa8>
 8001332:	e229      	b.n	8001788 <__aeabi_dmul+0x4fc>
 8001334:	2390      	movs	r3, #144	@ 0x90
 8001336:	009b      	lsls	r3, r3, #2
 8001338:	421d      	tst	r5, r3
 800133a:	d100      	bne.n	800133e <__aeabi_dmul+0xb2>
 800133c:	e24d      	b.n	80017da <__aeabi_dmul+0x54e>
 800133e:	2300      	movs	r3, #0
 8001340:	2480      	movs	r4, #128	@ 0x80
 8001342:	4699      	mov	r9, r3
 8001344:	0324      	lsls	r4, r4, #12
 8001346:	4ba8      	ldr	r3, [pc, #672]	@ (80015e8 <__aeabi_dmul+0x35c>)
 8001348:	0010      	movs	r0, r2
 800134a:	464a      	mov	r2, r9
 800134c:	051b      	lsls	r3, r3, #20
 800134e:	4323      	orrs	r3, r4
 8001350:	07d2      	lsls	r2, r2, #31
 8001352:	4313      	orrs	r3, r2
 8001354:	0019      	movs	r1, r3
 8001356:	b005      	add	sp, #20
 8001358:	bcf0      	pop	{r4, r5, r6, r7}
 800135a:	46bb      	mov	fp, r7
 800135c:	46b2      	mov	sl, r6
 800135e:	46a9      	mov	r9, r5
 8001360:	46a0      	mov	r8, r4
 8001362:	bdf0      	pop	{r4, r5, r6, r7, pc}
 8001364:	4652      	mov	r2, sl
 8001366:	4302      	orrs	r2, r0
 8001368:	4690      	mov	r8, r2
 800136a:	d000      	beq.n	800136e <__aeabi_dmul+0xe2>
 800136c:	e1ac      	b.n	80016c8 <__aeabi_dmul+0x43c>
 800136e:	469b      	mov	fp, r3
 8001370:	2302      	movs	r3, #2
 8001372:	4692      	mov	sl, r2
 8001374:	2508      	movs	r5, #8
 8001376:	9302      	str	r3, [sp, #8]
 8001378:	e7ae      	b.n	80012d8 <__aeabi_dmul+0x4c>
 800137a:	9b00      	ldr	r3, [sp, #0]
 800137c:	46a2      	mov	sl, r4
 800137e:	4699      	mov	r9, r3
 8001380:	9b01      	ldr	r3, [sp, #4]
 8001382:	4698      	mov	r8, r3
 8001384:	9b02      	ldr	r3, [sp, #8]
 8001386:	2b02      	cmp	r3, #2
 8001388:	d100      	bne.n	800138c <__aeabi_dmul+0x100>
 800138a:	e1ca      	b.n	8001722 <__aeabi_dmul+0x496>
 800138c:	2b03      	cmp	r3, #3
 800138e:	d100      	bne.n	8001392 <__aeabi_dmul+0x106>
 8001390:	e192      	b.n	80016b8 <__aeabi_dmul+0x42c>
 8001392:	2b01      	cmp	r3, #1
 8001394:	d110      	bne.n	80013b8 <__aeabi_dmul+0x12c>
 8001396:	2300      	movs	r3, #0
 8001398:	2400      	movs	r4, #0
 800139a:	2200      	movs	r2, #0
 800139c:	e7d4      	b.n	8001348 <__aeabi_dmul+0xbc>
 800139e:	2201      	movs	r2, #1
 80013a0:	087b      	lsrs	r3, r7, #1
 80013a2:	403a      	ands	r2, r7
 80013a4:	4313      	orrs	r3, r2
 80013a6:	4652      	mov	r2, sl
 80013a8:	07d2      	lsls	r2, r2, #31
 80013aa:	4313      	orrs	r3, r2
 80013ac:	4698      	mov	r8, r3
 80013ae:	4653      	mov	r3, sl
 80013b0:	085b      	lsrs	r3, r3, #1
 80013b2:	469a      	mov	sl, r3
 80013b4:	9b03      	ldr	r3, [sp, #12]
 80013b6:	4699      	mov	r9, r3
 80013b8:	465b      	mov	r3, fp
 80013ba:	1c58      	adds	r0, r3, #1
 80013bc:	2380      	movs	r3, #128	@ 0x80
 80013be:	00db      	lsls	r3, r3, #3
 80013c0:	445b      	add	r3, fp
 80013c2:	2b00      	cmp	r3, #0
 80013c4:	dc00      	bgt.n	80013c8 <__aeabi_dmul+0x13c>
 80013c6:	e1b1      	b.n	800172c <__aeabi_dmul+0x4a0>
 80013c8:	4642      	mov	r2, r8
 80013ca:	0752      	lsls	r2, r2, #29
 80013cc:	d00b      	beq.n	80013e6 <__aeabi_dmul+0x15a>
 80013ce:	220f      	movs	r2, #15
 80013d0:	4641      	mov	r1, r8
 80013d2:	400a      	ands	r2, r1
 80013d4:	2a04      	cmp	r2, #4
 80013d6:	d006      	beq.n	80013e6 <__aeabi_dmul+0x15a>
 80013d8:	4642      	mov	r2, r8
 80013da:	1d11      	adds	r1, r2, #4
 80013dc:	4541      	cmp	r1, r8
 80013de:	4192      	sbcs	r2, r2
 80013e0:	4688      	mov	r8, r1
 80013e2:	4252      	negs	r2, r2
 80013e4:	4492      	add	sl, r2
 80013e6:	4652      	mov	r2, sl
 80013e8:	01d2      	lsls	r2, r2, #7
 80013ea:	d506      	bpl.n	80013fa <__aeabi_dmul+0x16e>
 80013ec:	4652      	mov	r2, sl
 80013ee:	4b80      	ldr	r3, [pc, #512]	@ (80015f0 <__aeabi_dmul+0x364>)
 80013f0:	401a      	ands	r2, r3
 80013f2:	2380      	movs	r3, #128	@ 0x80
 80013f4:	4692      	mov	sl, r2
 80013f6:	00db      	lsls	r3, r3, #3
 80013f8:	18c3      	adds	r3, r0, r3
 80013fa:	4a7e      	ldr	r2, [pc, #504]	@ (80015f4 <__aeabi_dmul+0x368>)
 80013fc:	4293      	cmp	r3, r2
 80013fe:	dd00      	ble.n	8001402 <__aeabi_dmul+0x176>
 8001400:	e18f      	b.n	8001722 <__aeabi_dmul+0x496>
 8001402:	4642      	mov	r2, r8
 8001404:	08d1      	lsrs	r1, r2, #3
 8001406:	4652      	mov	r2, sl
 8001408:	0752      	lsls	r2, r2, #29
 800140a:	430a      	orrs	r2, r1
 800140c:	4651      	mov	r1, sl
 800140e:	055b      	lsls	r3, r3, #21
 8001410:	024c      	lsls	r4, r1, #9
 8001412:	0b24      	lsrs	r4, r4, #12
 8001414:	0d5b      	lsrs	r3, r3, #21
 8001416:	e797      	b.n	8001348 <__aeabi_dmul+0xbc>
 8001418:	4b73      	ldr	r3, [pc, #460]	@ (80015e8 <__aeabi_dmul+0x35c>)
 800141a:	4326      	orrs	r6, r4
 800141c:	469c      	mov	ip, r3
 800141e:	44e3      	add	fp, ip
 8001420:	2e00      	cmp	r6, #0
 8001422:	d100      	bne.n	8001426 <__aeabi_dmul+0x19a>
 8001424:	e16f      	b.n	8001706 <__aeabi_dmul+0x47a>
 8001426:	2303      	movs	r3, #3
 8001428:	4649      	mov	r1, r9
 800142a:	431d      	orrs	r5, r3
 800142c:	9b00      	ldr	r3, [sp, #0]
 800142e:	4059      	eors	r1, r3
 8001430:	b2cb      	uxtb	r3, r1
 8001432:	9303      	str	r3, [sp, #12]
 8001434:	2d0a      	cmp	r5, #10
 8001436:	dd00      	ble.n	800143a <__aeabi_dmul+0x1ae>
 8001438:	e133      	b.n	80016a2 <__aeabi_dmul+0x416>
 800143a:	2301      	movs	r3, #1
 800143c:	40ab      	lsls	r3, r5
 800143e:	001d      	movs	r5, r3
 8001440:	2303      	movs	r3, #3
 8001442:	9302      	str	r3, [sp, #8]
 8001444:	2288      	movs	r2, #136	@ 0x88
 8001446:	422a      	tst	r2, r5
 8001448:	d197      	bne.n	800137a <__aeabi_dmul+0xee>
 800144a:	4642      	mov	r2, r8
 800144c:	4643      	mov	r3, r8
 800144e:	0412      	lsls	r2, r2, #16
 8001450:	0c12      	lsrs	r2, r2, #16
 8001452:	0016      	movs	r6, r2
 8001454:	9801      	ldr	r0, [sp, #4]
 8001456:	0c1d      	lsrs	r5, r3, #16
 8001458:	0c03      	lsrs	r3, r0, #16
 800145a:	0400      	lsls	r0, r0, #16
 800145c:	0c00      	lsrs	r0, r0, #16
 800145e:	4346      	muls	r6, r0
 8001460:	46b4      	mov	ip, r6
 8001462:	001e      	movs	r6, r3
 8001464:	436e      	muls	r6, r5
 8001466:	9600      	str	r6, [sp, #0]
 8001468:	0016      	movs	r6, r2
 800146a:	0007      	movs	r7, r0
 800146c:	435e      	muls	r6, r3
 800146e:	4661      	mov	r1, ip
 8001470:	46b0      	mov	r8, r6
 8001472:	436f      	muls	r7, r5
 8001474:	0c0e      	lsrs	r6, r1, #16
 8001476:	44b8      	add	r8, r7
 8001478:	4446      	add	r6, r8
 800147a:	42b7      	cmp	r7, r6
 800147c:	d905      	bls.n	800148a <__aeabi_dmul+0x1fe>
 800147e:	2180      	movs	r1, #128	@ 0x80
 8001480:	0249      	lsls	r1, r1, #9
 8001482:	4688      	mov	r8, r1
 8001484:	9f00      	ldr	r7, [sp, #0]
 8001486:	4447      	add	r7, r8
 8001488:	9700      	str	r7, [sp, #0]
 800148a:	4661      	mov	r1, ip
 800148c:	0409      	lsls	r1, r1, #16
 800148e:	0c09      	lsrs	r1, r1, #16
 8001490:	0c37      	lsrs	r7, r6, #16
 8001492:	0436      	lsls	r6, r6, #16
 8001494:	468c      	mov	ip, r1
 8001496:	0031      	movs	r1, r6
 8001498:	4461      	add	r1, ip
 800149a:	9101      	str	r1, [sp, #4]
 800149c:	0011      	movs	r1, r2
 800149e:	0c26      	lsrs	r6, r4, #16
 80014a0:	0424      	lsls	r4, r4, #16
 80014a2:	0c24      	lsrs	r4, r4, #16
 80014a4:	4361      	muls	r1, r4
 80014a6:	468c      	mov	ip, r1
 80014a8:	0021      	movs	r1, r4
 80014aa:	4369      	muls	r1, r5
 80014ac:	4689      	mov	r9, r1
 80014ae:	4661      	mov	r1, ip
 80014b0:	0c09      	lsrs	r1, r1, #16
 80014b2:	4688      	mov	r8, r1
 80014b4:	4372      	muls	r2, r6
 80014b6:	444a      	add	r2, r9
 80014b8:	4442      	add	r2, r8
 80014ba:	4375      	muls	r5, r6
 80014bc:	4591      	cmp	r9, r2
 80014be:	d903      	bls.n	80014c8 <__aeabi_dmul+0x23c>
 80014c0:	2180      	movs	r1, #128	@ 0x80
 80014c2:	0249      	lsls	r1, r1, #9
 80014c4:	4688      	mov	r8, r1
 80014c6:	4445      	add	r5, r8
 80014c8:	0c11      	lsrs	r1, r2, #16
 80014ca:	4688      	mov	r8, r1
 80014cc:	4661      	mov	r1, ip
 80014ce:	0409      	lsls	r1, r1, #16
 80014d0:	0c09      	lsrs	r1, r1, #16
 80014d2:	468c      	mov	ip, r1
 80014d4:	0412      	lsls	r2, r2, #16
 80014d6:	4462      	add	r2, ip
 80014d8:	18b9      	adds	r1, r7, r2
 80014da:	9102      	str	r1, [sp, #8]
 80014dc:	4651      	mov	r1, sl
 80014de:	0c09      	lsrs	r1, r1, #16
 80014e0:	468c      	mov	ip, r1
 80014e2:	4651      	mov	r1, sl
 80014e4:	040f      	lsls	r7, r1, #16
 80014e6:	0c3f      	lsrs	r7, r7, #16
 80014e8:	0039      	movs	r1, r7
 80014ea:	4341      	muls	r1, r0
 80014ec:	4445      	add	r5, r8
 80014ee:	4688      	mov	r8, r1
 80014f0:	4661      	mov	r1, ip
 80014f2:	4341      	muls	r1, r0
 80014f4:	468a      	mov	sl, r1
 80014f6:	4641      	mov	r1, r8
 80014f8:	4660      	mov	r0, ip
 80014fa:	0c09      	lsrs	r1, r1, #16
 80014fc:	4689      	mov	r9, r1
 80014fe:	4358      	muls	r0, r3
 8001500:	437b      	muls	r3, r7
 8001502:	4453      	add	r3, sl
 8001504:	444b      	add	r3, r9
 8001506:	459a      	cmp	sl, r3
 8001508:	d903      	bls.n	8001512 <__aeabi_dmul+0x286>
 800150a:	2180      	movs	r1, #128	@ 0x80
 800150c:	0249      	lsls	r1, r1, #9
 800150e:	4689      	mov	r9, r1
 8001510:	4448      	add	r0, r9
 8001512:	0c19      	lsrs	r1, r3, #16
 8001514:	4689      	mov	r9, r1
 8001516:	4641      	mov	r1, r8
 8001518:	0409      	lsls	r1, r1, #16
 800151a:	0c09      	lsrs	r1, r1, #16
 800151c:	4688      	mov	r8, r1
 800151e:	0039      	movs	r1, r7
 8001520:	4361      	muls	r1, r4
 8001522:	041b      	lsls	r3, r3, #16
 8001524:	4443      	add	r3, r8
 8001526:	4688      	mov	r8, r1
 8001528:	4661      	mov	r1, ip
 800152a:	434c      	muls	r4, r1
 800152c:	4371      	muls	r1, r6
 800152e:	468c      	mov	ip, r1
 8001530:	4641      	mov	r1, r8
 8001532:	4377      	muls	r7, r6
 8001534:	0c0e      	lsrs	r6, r1, #16
 8001536:	193f      	adds	r7, r7, r4
 8001538:	19f6      	adds	r6, r6, r7
 800153a:	4448      	add	r0, r9
 800153c:	42b4      	cmp	r4, r6
 800153e:	d903      	bls.n	8001548 <__aeabi_dmul+0x2bc>
 8001540:	2180      	movs	r1, #128	@ 0x80
 8001542:	0249      	lsls	r1, r1, #9
 8001544:	4689      	mov	r9, r1
 8001546:	44cc      	add	ip, r9
 8001548:	9902      	ldr	r1, [sp, #8]
 800154a:	9f00      	ldr	r7, [sp, #0]
 800154c:	4689      	mov	r9, r1
 800154e:	0431      	lsls	r1, r6, #16
 8001550:	444f      	add	r7, r9
 8001552:	4689      	mov	r9, r1
 8001554:	4641      	mov	r1, r8
 8001556:	4297      	cmp	r7, r2
 8001558:	4192      	sbcs	r2, r2
 800155a:	040c      	lsls	r4, r1, #16
 800155c:	0c24      	lsrs	r4, r4, #16
 800155e:	444c      	add	r4, r9
 8001560:	18ff      	adds	r7, r7, r3
 8001562:	4252      	negs	r2, r2
 8001564:	1964      	adds	r4, r4, r5
 8001566:	18a1      	adds	r1, r4, r2
 8001568:	429f      	cmp	r7, r3
 800156a:	419b      	sbcs	r3, r3
 800156c:	4688      	mov	r8, r1
 800156e:	4682      	mov	sl, r0
 8001570:	425b      	negs	r3, r3
 8001572:	4699      	mov	r9, r3
 8001574:	4590      	cmp	r8, r2
 8001576:	4192      	sbcs	r2, r2
 8001578:	42ac      	cmp	r4, r5
 800157a:	41a4      	sbcs	r4, r4
 800157c:	44c2      	add	sl, r8
 800157e:	44d1      	add	r9, sl
 8001580:	4252      	negs	r2, r2
 8001582:	4264      	negs	r4, r4
 8001584:	4314      	orrs	r4, r2
 8001586:	4599      	cmp	r9, r3
 8001588:	419b      	sbcs	r3, r3
 800158a:	4582      	cmp	sl, r0
 800158c:	4192      	sbcs	r2, r2
 800158e:	425b      	negs	r3, r3
 8001590:	4252      	negs	r2, r2
 8001592:	4313      	orrs	r3, r2
 8001594:	464a      	mov	r2, r9
 8001596:	0c36      	lsrs	r6, r6, #16
 8001598:	19a4      	adds	r4, r4, r6
 800159a:	18e3      	adds	r3, r4, r3
 800159c:	4463      	add	r3, ip
 800159e:	025b      	lsls	r3, r3, #9
 80015a0:	0dd2      	lsrs	r2, r2, #23
 80015a2:	431a      	orrs	r2, r3
 80015a4:	9901      	ldr	r1, [sp, #4]
 80015a6:	4692      	mov	sl, r2
 80015a8:	027a      	lsls	r2, r7, #9
 80015aa:	430a      	orrs	r2, r1
 80015ac:	1e50      	subs	r0, r2, #1
 80015ae:	4182      	sbcs	r2, r0
 80015b0:	0dff      	lsrs	r7, r7, #23
 80015b2:	4317      	orrs	r7, r2
 80015b4:	464a      	mov	r2, r9
 80015b6:	0252      	lsls	r2, r2, #9
 80015b8:	4317      	orrs	r7, r2
 80015ba:	46b8      	mov	r8, r7
 80015bc:	01db      	lsls	r3, r3, #7
 80015be:	d500      	bpl.n	80015c2 <__aeabi_dmul+0x336>
 80015c0:	e6ed      	b.n	800139e <__aeabi_dmul+0x112>
 80015c2:	4b0d      	ldr	r3, [pc, #52]	@ (80015f8 <__aeabi_dmul+0x36c>)
 80015c4:	9a03      	ldr	r2, [sp, #12]
 80015c6:	445b      	add	r3, fp
 80015c8:	4691      	mov	r9, r2
 80015ca:	2b00      	cmp	r3, #0
 80015cc:	dc00      	bgt.n	80015d0 <__aeabi_dmul+0x344>
 80015ce:	e0ac      	b.n	800172a <__aeabi_dmul+0x49e>
 80015d0:	003a      	movs	r2, r7
 80015d2:	0752      	lsls	r2, r2, #29
 80015d4:	d100      	bne.n	80015d8 <__aeabi_dmul+0x34c>
 80015d6:	e710      	b.n	80013fa <__aeabi_dmul+0x16e>
 80015d8:	220f      	movs	r2, #15
 80015da:	4658      	mov	r0, fp
 80015dc:	403a      	ands	r2, r7
 80015de:	2a04      	cmp	r2, #4
 80015e0:	d000      	beq.n	80015e4 <__aeabi_dmul+0x358>
 80015e2:	e6f9      	b.n	80013d8 <__aeabi_dmul+0x14c>
 80015e4:	e709      	b.n	80013fa <__aeabi_dmul+0x16e>
 80015e6:	46c0      	nop			@ (mov r8, r8)
 80015e8:	000007ff 	.word	0x000007ff
 80015ec:	fffffc01 	.word	0xfffffc01
 80015f0:	feffffff 	.word	0xfeffffff
 80015f4:	000007fe 	.word	0x000007fe
 80015f8:	000003ff 	.word	0x000003ff
 80015fc:	0022      	movs	r2, r4
 80015fe:	4332      	orrs	r2, r6
 8001600:	d06f      	beq.n	80016e2 <__aeabi_dmul+0x456>
 8001602:	2c00      	cmp	r4, #0
 8001604:	d100      	bne.n	8001608 <__aeabi_dmul+0x37c>
 8001606:	e0c2      	b.n	800178e <__aeabi_dmul+0x502>
 8001608:	0020      	movs	r0, r4
 800160a:	f000 fdfb 	bl	8002204 <__clzsi2>
 800160e:	0002      	movs	r2, r0
 8001610:	0003      	movs	r3, r0
 8001612:	3a0b      	subs	r2, #11
 8001614:	201d      	movs	r0, #29
 8001616:	1a82      	subs	r2, r0, r2
 8001618:	0030      	movs	r0, r6
 800161a:	0019      	movs	r1, r3
 800161c:	40d0      	lsrs	r0, r2
 800161e:	3908      	subs	r1, #8
 8001620:	408c      	lsls	r4, r1
 8001622:	0002      	movs	r2, r0
 8001624:	4322      	orrs	r2, r4
 8001626:	0034      	movs	r4, r6
 8001628:	408c      	lsls	r4, r1
 800162a:	4659      	mov	r1, fp
 800162c:	1acb      	subs	r3, r1, r3
 800162e:	4986      	ldr	r1, [pc, #536]	@ (8001848 <__aeabi_dmul+0x5bc>)
 8001630:	468b      	mov	fp, r1
 8001632:	449b      	add	fp, r3
 8001634:	2d0a      	cmp	r5, #10
 8001636:	dd00      	ble.n	800163a <__aeabi_dmul+0x3ae>
 8001638:	e6a4      	b.n	8001384 <__aeabi_dmul+0xf8>
 800163a:	4649      	mov	r1, r9
 800163c:	9b00      	ldr	r3, [sp, #0]
 800163e:	9401      	str	r4, [sp, #4]
 8001640:	4059      	eors	r1, r3
 8001642:	b2cb      	uxtb	r3, r1
 8001644:	0014      	movs	r4, r2
 8001646:	2000      	movs	r0, #0
 8001648:	9303      	str	r3, [sp, #12]
 800164a:	2d02      	cmp	r5, #2
 800164c:	dd00      	ble.n	8001650 <__aeabi_dmul+0x3c4>
 800164e:	e667      	b.n	8001320 <__aeabi_dmul+0x94>
 8001650:	e6fb      	b.n	800144a <__aeabi_dmul+0x1be>
 8001652:	4653      	mov	r3, sl
 8001654:	4303      	orrs	r3, r0
 8001656:	4698      	mov	r8, r3
 8001658:	d03c      	beq.n	80016d4 <__aeabi_dmul+0x448>
 800165a:	4653      	mov	r3, sl
 800165c:	2b00      	cmp	r3, #0
 800165e:	d100      	bne.n	8001662 <__aeabi_dmul+0x3d6>
 8001660:	e0a3      	b.n	80017aa <__aeabi_dmul+0x51e>
 8001662:	4650      	mov	r0, sl
 8001664:	f000 fdce 	bl	8002204 <__clzsi2>
 8001668:	230b      	movs	r3, #11
 800166a:	425b      	negs	r3, r3
 800166c:	469c      	mov	ip, r3
 800166e:	0002      	movs	r2, r0
 8001670:	4484      	add	ip, r0
 8001672:	0011      	movs	r1, r2
 8001674:	4650      	mov	r0, sl
 8001676:	3908      	subs	r1, #8
 8001678:	4088      	lsls	r0, r1
 800167a:	231d      	movs	r3, #29
 800167c:	4680      	mov	r8, r0
 800167e:	4660      	mov	r0, ip
 8001680:	1a1b      	subs	r3, r3, r0
 8001682:	0020      	movs	r0, r4
 8001684:	40d8      	lsrs	r0, r3
 8001686:	0003      	movs	r3, r0
 8001688:	4640      	mov	r0, r8
 800168a:	4303      	orrs	r3, r0
 800168c:	469a      	mov	sl, r3
 800168e:	0023      	movs	r3, r4
 8001690:	408b      	lsls	r3, r1
 8001692:	4698      	mov	r8, r3
 8001694:	4b6c      	ldr	r3, [pc, #432]	@ (8001848 <__aeabi_dmul+0x5bc>)
 8001696:	2500      	movs	r5, #0
 8001698:	1a9b      	subs	r3, r3, r2
 800169a:	469b      	mov	fp, r3
 800169c:	2300      	movs	r3, #0
 800169e:	9302      	str	r3, [sp, #8]
 80016a0:	e61a      	b.n	80012d8 <__aeabi_dmul+0x4c>
 80016a2:	2d0f      	cmp	r5, #15
 80016a4:	d000      	beq.n	80016a8 <__aeabi_dmul+0x41c>
 80016a6:	e0c9      	b.n	800183c <__aeabi_dmul+0x5b0>
 80016a8:	2380      	movs	r3, #128	@ 0x80
 80016aa:	4652      	mov	r2, sl
 80016ac:	031b      	lsls	r3, r3, #12
 80016ae:	421a      	tst	r2, r3
 80016b0:	d002      	beq.n	80016b8 <__aeabi_dmul+0x42c>
 80016b2:	421c      	tst	r4, r3
 80016b4:	d100      	bne.n	80016b8 <__aeabi_dmul+0x42c>
 80016b6:	e092      	b.n	80017de <__aeabi_dmul+0x552>
 80016b8:	2480      	movs	r4, #128	@ 0x80
 80016ba:	4653      	mov	r3, sl
 80016bc:	0324      	lsls	r4, r4, #12
 80016be:	431c      	orrs	r4, r3
 80016c0:	0324      	lsls	r4, r4, #12
 80016c2:	4642      	mov	r2, r8
 80016c4:	0b24      	lsrs	r4, r4, #12
 80016c6:	e63e      	b.n	8001346 <__aeabi_dmul+0xba>
 80016c8:	469b      	mov	fp, r3
 80016ca:	2303      	movs	r3, #3
 80016cc:	4680      	mov	r8, r0
 80016ce:	250c      	movs	r5, #12
 80016d0:	9302      	str	r3, [sp, #8]
 80016d2:	e601      	b.n	80012d8 <__aeabi_dmul+0x4c>
 80016d4:	2300      	movs	r3, #0
 80016d6:	469a      	mov	sl, r3
 80016d8:	469b      	mov	fp, r3
 80016da:	3301      	adds	r3, #1
 80016dc:	2504      	movs	r5, #4
 80016de:	9302      	str	r3, [sp, #8]
 80016e0:	e5fa      	b.n	80012d8 <__aeabi_dmul+0x4c>
 80016e2:	2101      	movs	r1, #1
 80016e4:	430d      	orrs	r5, r1
 80016e6:	2d0a      	cmp	r5, #10
 80016e8:	dd00      	ble.n	80016ec <__aeabi_dmul+0x460>
 80016ea:	e64b      	b.n	8001384 <__aeabi_dmul+0xf8>
 80016ec:	4649      	mov	r1, r9
 80016ee:	9800      	ldr	r0, [sp, #0]
 80016f0:	4041      	eors	r1, r0
 80016f2:	b2c9      	uxtb	r1, r1
 80016f4:	9103      	str	r1, [sp, #12]
 80016f6:	2d02      	cmp	r5, #2
 80016f8:	dc00      	bgt.n	80016fc <__aeabi_dmul+0x470>
 80016fa:	e096      	b.n	800182a <__aeabi_dmul+0x59e>
 80016fc:	2300      	movs	r3, #0
 80016fe:	2400      	movs	r4, #0
 8001700:	2001      	movs	r0, #1
 8001702:	9301      	str	r3, [sp, #4]
 8001704:	e60c      	b.n	8001320 <__aeabi_dmul+0x94>
 8001706:	4649      	mov	r1, r9
 8001708:	2302      	movs	r3, #2
 800170a:	9a00      	ldr	r2, [sp, #0]
 800170c:	432b      	orrs	r3, r5
 800170e:	4051      	eors	r1, r2
 8001710:	b2ca      	uxtb	r2, r1
 8001712:	9203      	str	r2, [sp, #12]
 8001714:	2b0a      	cmp	r3, #10
 8001716:	dd00      	ble.n	800171a <__aeabi_dmul+0x48e>
 8001718:	e634      	b.n	8001384 <__aeabi_dmul+0xf8>
 800171a:	2d00      	cmp	r5, #0
 800171c:	d157      	bne.n	80017ce <__aeabi_dmul+0x542>
 800171e:	9b03      	ldr	r3, [sp, #12]
 8001720:	4699      	mov	r9, r3
 8001722:	2400      	movs	r4, #0
 8001724:	2200      	movs	r2, #0
 8001726:	4b49      	ldr	r3, [pc, #292]	@ (800184c <__aeabi_dmul+0x5c0>)
 8001728:	e60e      	b.n	8001348 <__aeabi_dmul+0xbc>
 800172a:	4658      	mov	r0, fp
 800172c:	2101      	movs	r1, #1
 800172e:	1ac9      	subs	r1, r1, r3
 8001730:	2938      	cmp	r1, #56	@ 0x38
 8001732:	dd00      	ble.n	8001736 <__aeabi_dmul+0x4aa>
 8001734:	e62f      	b.n	8001396 <__aeabi_dmul+0x10a>
 8001736:	291f      	cmp	r1, #31
 8001738:	dd56      	ble.n	80017e8 <__aeabi_dmul+0x55c>
 800173a:	221f      	movs	r2, #31
 800173c:	4654      	mov	r4, sl
 800173e:	4252      	negs	r2, r2
 8001740:	1ad3      	subs	r3, r2, r3
 8001742:	40dc      	lsrs	r4, r3
 8001744:	2920      	cmp	r1, #32
 8001746:	d007      	beq.n	8001758 <__aeabi_dmul+0x4cc>
 8001748:	4b41      	ldr	r3, [pc, #260]	@ (8001850 <__aeabi_dmul+0x5c4>)
 800174a:	4642      	mov	r2, r8
 800174c:	469c      	mov	ip, r3
 800174e:	4653      	mov	r3, sl
 8001750:	4460      	add	r0, ip
 8001752:	4083      	lsls	r3, r0
 8001754:	431a      	orrs	r2, r3
 8001756:	4690      	mov	r8, r2
 8001758:	4642      	mov	r2, r8
 800175a:	2107      	movs	r1, #7
 800175c:	1e53      	subs	r3, r2, #1
 800175e:	419a      	sbcs	r2, r3
 8001760:	000b      	movs	r3, r1
 8001762:	4322      	orrs	r2, r4
 8001764:	4013      	ands	r3, r2
 8001766:	2400      	movs	r4, #0
 8001768:	4211      	tst	r1, r2
 800176a:	d009      	beq.n	8001780 <__aeabi_dmul+0x4f4>
 800176c:	230f      	movs	r3, #15
 800176e:	4013      	ands	r3, r2
 8001770:	2b04      	cmp	r3, #4
 8001772:	d05d      	beq.n	8001830 <__aeabi_dmul+0x5a4>
 8001774:	1d11      	adds	r1, r2, #4
 8001776:	4291      	cmp	r1, r2
 8001778:	419b      	sbcs	r3, r3
 800177a:	000a      	movs	r2, r1
 800177c:	425b      	negs	r3, r3
 800177e:	075b      	lsls	r3, r3, #29
 8001780:	08d2      	lsrs	r2, r2, #3
 8001782:	431a      	orrs	r2, r3
 8001784:	2300      	movs	r3, #0
 8001786:	e5df      	b.n	8001348 <__aeabi_dmul+0xbc>
 8001788:	9b03      	ldr	r3, [sp, #12]
 800178a:	4699      	mov	r9, r3
 800178c:	e5fa      	b.n	8001384 <__aeabi_dmul+0xf8>
 800178e:	9801      	ldr	r0, [sp, #4]
 8001790:	f000 fd38 	bl	8002204 <__clzsi2>
 8001794:	0002      	movs	r2, r0
 8001796:	0003      	movs	r3, r0
 8001798:	3215      	adds	r2, #21
 800179a:	3320      	adds	r3, #32
 800179c:	2a1c      	cmp	r2, #28
 800179e:	dc00      	bgt.n	80017a2 <__aeabi_dmul+0x516>
 80017a0:	e738      	b.n	8001614 <__aeabi_dmul+0x388>
 80017a2:	9a01      	ldr	r2, [sp, #4]
 80017a4:	3808      	subs	r0, #8
 80017a6:	4082      	lsls	r2, r0
 80017a8:	e73f      	b.n	800162a <__aeabi_dmul+0x39e>
 80017aa:	f000 fd2b 	bl	8002204 <__clzsi2>
 80017ae:	2315      	movs	r3, #21
 80017b0:	469c      	mov	ip, r3
 80017b2:	4484      	add	ip, r0
 80017b4:	0002      	movs	r2, r0
 80017b6:	4663      	mov	r3, ip
 80017b8:	3220      	adds	r2, #32
 80017ba:	2b1c      	cmp	r3, #28
 80017bc:	dc00      	bgt.n	80017c0 <__aeabi_dmul+0x534>
 80017be:	e758      	b.n	8001672 <__aeabi_dmul+0x3e6>
 80017c0:	2300      	movs	r3, #0
 80017c2:	4698      	mov	r8, r3
 80017c4:	0023      	movs	r3, r4
 80017c6:	3808      	subs	r0, #8
 80017c8:	4083      	lsls	r3, r0
 80017ca:	469a      	mov	sl, r3
 80017cc:	e762      	b.n	8001694 <__aeabi_dmul+0x408>
 80017ce:	001d      	movs	r5, r3
 80017d0:	2300      	movs	r3, #0
 80017d2:	2400      	movs	r4, #0
 80017d4:	2002      	movs	r0, #2
 80017d6:	9301      	str	r3, [sp, #4]
 80017d8:	e5a2      	b.n	8001320 <__aeabi_dmul+0x94>
 80017da:	9002      	str	r0, [sp, #8]
 80017dc:	e632      	b.n	8001444 <__aeabi_dmul+0x1b8>
 80017de:	431c      	orrs	r4, r3
 80017e0:	9b00      	ldr	r3, [sp, #0]
 80017e2:	9a01      	ldr	r2, [sp, #4]
 80017e4:	4699      	mov	r9, r3
 80017e6:	e5ae      	b.n	8001346 <__aeabi_dmul+0xba>
 80017e8:	4b1a      	ldr	r3, [pc, #104]	@ (8001854 <__aeabi_dmul+0x5c8>)
 80017ea:	4652      	mov	r2, sl
 80017ec:	18c3      	adds	r3, r0, r3
 80017ee:	4640      	mov	r0, r8
 80017f0:	409a      	lsls	r2, r3
 80017f2:	40c8      	lsrs	r0, r1
 80017f4:	4302      	orrs	r2, r0
 80017f6:	4640      	mov	r0, r8
 80017f8:	4098      	lsls	r0, r3
 80017fa:	0003      	movs	r3, r0
 80017fc:	1e58      	subs	r0, r3, #1
 80017fe:	4183      	sbcs	r3, r0
 8001800:	4654      	mov	r4, sl
 8001802:	431a      	orrs	r2, r3
 8001804:	40cc      	lsrs	r4, r1
 8001806:	0753      	lsls	r3, r2, #29
 8001808:	d009      	beq.n	800181e <__aeabi_dmul+0x592>
 800180a:	230f      	movs	r3, #15
 800180c:	4013      	ands	r3, r2
 800180e:	2b04      	cmp	r3, #4
 8001810:	d005      	beq.n	800181e <__aeabi_dmul+0x592>
 8001812:	1d13      	adds	r3, r2, #4
 8001814:	4293      	cmp	r3, r2
 8001816:	4192      	sbcs	r2, r2
 8001818:	4252      	negs	r2, r2
 800181a:	18a4      	adds	r4, r4, r2
 800181c:	001a      	movs	r2, r3
 800181e:	0223      	lsls	r3, r4, #8
 8001820:	d508      	bpl.n	8001834 <__aeabi_dmul+0x5a8>
 8001822:	2301      	movs	r3, #1
 8001824:	2400      	movs	r4, #0
 8001826:	2200      	movs	r2, #0
 8001828:	e58e      	b.n	8001348 <__aeabi_dmul+0xbc>
 800182a:	4689      	mov	r9, r1
 800182c:	2400      	movs	r4, #0
 800182e:	e58b      	b.n	8001348 <__aeabi_dmul+0xbc>
 8001830:	2300      	movs	r3, #0
 8001832:	e7a5      	b.n	8001780 <__aeabi_dmul+0x4f4>
 8001834:	0763      	lsls	r3, r4, #29
 8001836:	0264      	lsls	r4, r4, #9
 8001838:	0b24      	lsrs	r4, r4, #12
 800183a:	e7a1      	b.n	8001780 <__aeabi_dmul+0x4f4>
 800183c:	9b00      	ldr	r3, [sp, #0]
 800183e:	46a2      	mov	sl, r4
 8001840:	4699      	mov	r9, r3
 8001842:	9b01      	ldr	r3, [sp, #4]
 8001844:	4698      	mov	r8, r3
 8001846:	e737      	b.n	80016b8 <__aeabi_dmul+0x42c>
 8001848:	fffffc0d 	.word	0xfffffc0d
 800184c:	000007ff 	.word	0x000007ff
 8001850:	0000043e 	.word	0x0000043e
 8001854:	0000041e 	.word	0x0000041e

08001858 <__aeabi_dsub>:
 8001858:	b5f0      	push	{r4, r5, r6, r7, lr}
 800185a:	4657      	mov	r7, sl
 800185c:	464e      	mov	r6, r9
 800185e:	4645      	mov	r5, r8
 8001860:	46de      	mov	lr, fp
 8001862:	b5e0      	push	{r5, r6, r7, lr}
 8001864:	b083      	sub	sp, #12
 8001866:	9000      	str	r0, [sp, #0]
 8001868:	9101      	str	r1, [sp, #4]
 800186a:	030c      	lsls	r4, r1, #12
 800186c:	004d      	lsls	r5, r1, #1
 800186e:	0fce      	lsrs	r6, r1, #31
 8001870:	0a61      	lsrs	r1, r4, #9
 8001872:	9c00      	ldr	r4, [sp, #0]
 8001874:	005f      	lsls	r7, r3, #1
 8001876:	0f64      	lsrs	r4, r4, #29
 8001878:	430c      	orrs	r4, r1
 800187a:	9900      	ldr	r1, [sp, #0]
 800187c:	9200      	str	r2, [sp, #0]
 800187e:	9301      	str	r3, [sp, #4]
 8001880:	00c8      	lsls	r0, r1, #3
 8001882:	0319      	lsls	r1, r3, #12
 8001884:	0d7b      	lsrs	r3, r7, #21
 8001886:	4699      	mov	r9, r3
 8001888:	9b01      	ldr	r3, [sp, #4]
 800188a:	4fcc      	ldr	r7, [pc, #816]	@ (8001bbc <__aeabi_dsub+0x364>)
 800188c:	0fdb      	lsrs	r3, r3, #31
 800188e:	469c      	mov	ip, r3
 8001890:	0a4b      	lsrs	r3, r1, #9
 8001892:	9900      	ldr	r1, [sp, #0]
 8001894:	4680      	mov	r8, r0
 8001896:	0f49      	lsrs	r1, r1, #29
 8001898:	4319      	orrs	r1, r3
 800189a:	9b00      	ldr	r3, [sp, #0]
 800189c:	468b      	mov	fp, r1
 800189e:	00da      	lsls	r2, r3, #3
 80018a0:	4692      	mov	sl, r2
 80018a2:	0d6d      	lsrs	r5, r5, #21
 80018a4:	45b9      	cmp	r9, r7
 80018a6:	d100      	bne.n	80018aa <__aeabi_dsub+0x52>
 80018a8:	e0bf      	b.n	8001a2a <__aeabi_dsub+0x1d2>
 80018aa:	2301      	movs	r3, #1
 80018ac:	4661      	mov	r1, ip
 80018ae:	4059      	eors	r1, r3
 80018b0:	464b      	mov	r3, r9
 80018b2:	468c      	mov	ip, r1
 80018b4:	1aeb      	subs	r3, r5, r3
 80018b6:	428e      	cmp	r6, r1
 80018b8:	d075      	beq.n	80019a6 <__aeabi_dsub+0x14e>
 80018ba:	2b00      	cmp	r3, #0
 80018bc:	dc00      	bgt.n	80018c0 <__aeabi_dsub+0x68>
 80018be:	e2a3      	b.n	8001e08 <__aeabi_dsub+0x5b0>
 80018c0:	4649      	mov	r1, r9
 80018c2:	2900      	cmp	r1, #0
 80018c4:	d100      	bne.n	80018c8 <__aeabi_dsub+0x70>
 80018c6:	e0ce      	b.n	8001a66 <__aeabi_dsub+0x20e>
 80018c8:	42bd      	cmp	r5, r7
 80018ca:	d100      	bne.n	80018ce <__aeabi_dsub+0x76>
 80018cc:	e200      	b.n	8001cd0 <__aeabi_dsub+0x478>
 80018ce:	2701      	movs	r7, #1
 80018d0:	2b38      	cmp	r3, #56	@ 0x38
 80018d2:	dc19      	bgt.n	8001908 <__aeabi_dsub+0xb0>
 80018d4:	2780      	movs	r7, #128	@ 0x80
 80018d6:	4659      	mov	r1, fp
 80018d8:	043f      	lsls	r7, r7, #16
 80018da:	4339      	orrs	r1, r7
 80018dc:	468b      	mov	fp, r1
 80018de:	2b1f      	cmp	r3, #31
 80018e0:	dd00      	ble.n	80018e4 <__aeabi_dsub+0x8c>
 80018e2:	e1fa      	b.n	8001cda <__aeabi_dsub+0x482>
 80018e4:	2720      	movs	r7, #32
 80018e6:	1af9      	subs	r1, r7, r3
 80018e8:	468c      	mov	ip, r1
 80018ea:	4659      	mov	r1, fp
 80018ec:	4667      	mov	r7, ip
 80018ee:	40b9      	lsls	r1, r7
 80018f0:	000f      	movs	r7, r1
 80018f2:	0011      	movs	r1, r2
 80018f4:	40d9      	lsrs	r1, r3
 80018f6:	430f      	orrs	r7, r1
 80018f8:	4661      	mov	r1, ip
 80018fa:	408a      	lsls	r2, r1
 80018fc:	1e51      	subs	r1, r2, #1
 80018fe:	418a      	sbcs	r2, r1
 8001900:	4659      	mov	r1, fp
 8001902:	40d9      	lsrs	r1, r3
 8001904:	4317      	orrs	r7, r2
 8001906:	1a64      	subs	r4, r4, r1
 8001908:	1bc7      	subs	r7, r0, r7
 800190a:	42b8      	cmp	r0, r7
 800190c:	4180      	sbcs	r0, r0
 800190e:	4240      	negs	r0, r0
 8001910:	1a24      	subs	r4, r4, r0
 8001912:	0223      	lsls	r3, r4, #8
 8001914:	d400      	bmi.n	8001918 <__aeabi_dsub+0xc0>
 8001916:	e140      	b.n	8001b9a <__aeabi_dsub+0x342>
 8001918:	0264      	lsls	r4, r4, #9
 800191a:	0a64      	lsrs	r4, r4, #9
 800191c:	2c00      	cmp	r4, #0
 800191e:	d100      	bne.n	8001922 <__aeabi_dsub+0xca>
 8001920:	e154      	b.n	8001bcc <__aeabi_dsub+0x374>
 8001922:	0020      	movs	r0, r4
 8001924:	f000 fc6e 	bl	8002204 <__clzsi2>
 8001928:	0003      	movs	r3, r0
 800192a:	3b08      	subs	r3, #8
 800192c:	2120      	movs	r1, #32
 800192e:	0038      	movs	r0, r7
 8001930:	1aca      	subs	r2, r1, r3
 8001932:	40d0      	lsrs	r0, r2
 8001934:	409c      	lsls	r4, r3
 8001936:	0002      	movs	r2, r0
 8001938:	409f      	lsls	r7, r3
 800193a:	4322      	orrs	r2, r4
 800193c:	429d      	cmp	r5, r3
 800193e:	dd00      	ble.n	8001942 <__aeabi_dsub+0xea>
 8001940:	e1a6      	b.n	8001c90 <__aeabi_dsub+0x438>
 8001942:	1b58      	subs	r0, r3, r5
 8001944:	3001      	adds	r0, #1
 8001946:	1a09      	subs	r1, r1, r0
 8001948:	003c      	movs	r4, r7
 800194a:	408f      	lsls	r7, r1
 800194c:	40c4      	lsrs	r4, r0
 800194e:	1e7b      	subs	r3, r7, #1
 8001950:	419f      	sbcs	r7, r3
 8001952:	0013      	movs	r3, r2
 8001954:	408b      	lsls	r3, r1
 8001956:	4327      	orrs	r7, r4
 8001958:	431f      	orrs	r7, r3
 800195a:	40c2      	lsrs	r2, r0
 800195c:	003b      	movs	r3, r7
 800195e:	0014      	movs	r4, r2
 8001960:	2500      	movs	r5, #0
 8001962:	4313      	orrs	r3, r2
 8001964:	d100      	bne.n	8001968 <__aeabi_dsub+0x110>
 8001966:	e1f7      	b.n	8001d58 <__aeabi_dsub+0x500>
 8001968:	077b      	lsls	r3, r7, #29
 800196a:	d100      	bne.n	800196e <__aeabi_dsub+0x116>
 800196c:	e377      	b.n	800205e <__aeabi_dsub+0x806>
 800196e:	230f      	movs	r3, #15
 8001970:	0038      	movs	r0, r7
 8001972:	403b      	ands	r3, r7
 8001974:	2b04      	cmp	r3, #4
 8001976:	d004      	beq.n	8001982 <__aeabi_dsub+0x12a>
 8001978:	1d38      	adds	r0, r7, #4
 800197a:	42b8      	cmp	r0, r7
 800197c:	41bf      	sbcs	r7, r7
 800197e:	427f      	negs	r7, r7
 8001980:	19e4      	adds	r4, r4, r7
 8001982:	0223      	lsls	r3, r4, #8
 8001984:	d400      	bmi.n	8001988 <__aeabi_dsub+0x130>
 8001986:	e368      	b.n	800205a <__aeabi_dsub+0x802>
 8001988:	4b8c      	ldr	r3, [pc, #560]	@ (8001bbc <__aeabi_dsub+0x364>)
 800198a:	3501      	adds	r5, #1
 800198c:	429d      	cmp	r5, r3
 800198e:	d100      	bne.n	8001992 <__aeabi_dsub+0x13a>
 8001990:	e0f4      	b.n	8001b7c <__aeabi_dsub+0x324>
 8001992:	4b8b      	ldr	r3, [pc, #556]	@ (8001bc0 <__aeabi_dsub+0x368>)
 8001994:	056d      	lsls	r5, r5, #21
 8001996:	401c      	ands	r4, r3
 8001998:	0d6d      	lsrs	r5, r5, #21
 800199a:	0767      	lsls	r7, r4, #29
 800199c:	08c0      	lsrs	r0, r0, #3
 800199e:	0264      	lsls	r4, r4, #9
 80019a0:	4307      	orrs	r7, r0
 80019a2:	0b24      	lsrs	r4, r4, #12
 80019a4:	e0ec      	b.n	8001b80 <__aeabi_dsub+0x328>
 80019a6:	2b00      	cmp	r3, #0
 80019a8:	dc00      	bgt.n	80019ac <__aeabi_dsub+0x154>
 80019aa:	e329      	b.n	8002000 <__aeabi_dsub+0x7a8>
 80019ac:	4649      	mov	r1, r9
 80019ae:	2900      	cmp	r1, #0
 80019b0:	d000      	beq.n	80019b4 <__aeabi_dsub+0x15c>
 80019b2:	e0d6      	b.n	8001b62 <__aeabi_dsub+0x30a>
 80019b4:	4659      	mov	r1, fp
 80019b6:	4311      	orrs	r1, r2
 80019b8:	d100      	bne.n	80019bc <__aeabi_dsub+0x164>
 80019ba:	e12e      	b.n	8001c1a <__aeabi_dsub+0x3c2>
 80019bc:	1e59      	subs	r1, r3, #1
 80019be:	2b01      	cmp	r3, #1
 80019c0:	d100      	bne.n	80019c4 <__aeabi_dsub+0x16c>
 80019c2:	e1e6      	b.n	8001d92 <__aeabi_dsub+0x53a>
 80019c4:	42bb      	cmp	r3, r7
 80019c6:	d100      	bne.n	80019ca <__aeabi_dsub+0x172>
 80019c8:	e182      	b.n	8001cd0 <__aeabi_dsub+0x478>
 80019ca:	2701      	movs	r7, #1
 80019cc:	000b      	movs	r3, r1
 80019ce:	2938      	cmp	r1, #56	@ 0x38
 80019d0:	dc14      	bgt.n	80019fc <__aeabi_dsub+0x1a4>
 80019d2:	2b1f      	cmp	r3, #31
 80019d4:	dd00      	ble.n	80019d8 <__aeabi_dsub+0x180>
 80019d6:	e23c      	b.n	8001e52 <__aeabi_dsub+0x5fa>
 80019d8:	2720      	movs	r7, #32
 80019da:	1af9      	subs	r1, r7, r3
 80019dc:	468c      	mov	ip, r1
 80019de:	4659      	mov	r1, fp
 80019e0:	4667      	mov	r7, ip
 80019e2:	40b9      	lsls	r1, r7
 80019e4:	000f      	movs	r7, r1
 80019e6:	0011      	movs	r1, r2
 80019e8:	40d9      	lsrs	r1, r3
 80019ea:	430f      	orrs	r7, r1
 80019ec:	4661      	mov	r1, ip
 80019ee:	408a      	lsls	r2, r1
 80019f0:	1e51      	subs	r1, r2, #1
 80019f2:	418a      	sbcs	r2, r1
 80019f4:	4659      	mov	r1, fp
 80019f6:	40d9      	lsrs	r1, r3
 80019f8:	4317      	orrs	r7, r2
 80019fa:	1864      	adds	r4, r4, r1
 80019fc:	183f      	adds	r7, r7, r0
 80019fe:	4287      	cmp	r7, r0
 8001a00:	4180      	sbcs	r0, r0
 8001a02:	4240      	negs	r0, r0
 8001a04:	1824      	adds	r4, r4, r0
 8001a06:	0223      	lsls	r3, r4, #8
 8001a08:	d400      	bmi.n	8001a0c <__aeabi_dsub+0x1b4>
 8001a0a:	e0c6      	b.n	8001b9a <__aeabi_dsub+0x342>
 8001a0c:	4b6b      	ldr	r3, [pc, #428]	@ (8001bbc <__aeabi_dsub+0x364>)
 8001a0e:	3501      	adds	r5, #1
 8001a10:	429d      	cmp	r5, r3
 8001a12:	d100      	bne.n	8001a16 <__aeabi_dsub+0x1be>
 8001a14:	e0b2      	b.n	8001b7c <__aeabi_dsub+0x324>
 8001a16:	2101      	movs	r1, #1
 8001a18:	4b69      	ldr	r3, [pc, #420]	@ (8001bc0 <__aeabi_dsub+0x368>)
 8001a1a:	087a      	lsrs	r2, r7, #1
 8001a1c:	401c      	ands	r4, r3
 8001a1e:	4039      	ands	r1, r7
 8001a20:	430a      	orrs	r2, r1
 8001a22:	07e7      	lsls	r7, r4, #31
 8001a24:	4317      	orrs	r7, r2
 8001a26:	0864      	lsrs	r4, r4, #1
 8001a28:	e79e      	b.n	8001968 <__aeabi_dsub+0x110>
 8001a2a:	4b66      	ldr	r3, [pc, #408]	@ (8001bc4 <__aeabi_dsub+0x36c>)
 8001a2c:	4311      	orrs	r1, r2
 8001a2e:	468a      	mov	sl, r1
 8001a30:	18eb      	adds	r3, r5, r3
 8001a32:	2900      	cmp	r1, #0
 8001a34:	d028      	beq.n	8001a88 <__aeabi_dsub+0x230>
 8001a36:	4566      	cmp	r6, ip
 8001a38:	d02c      	beq.n	8001a94 <__aeabi_dsub+0x23c>
 8001a3a:	2b00      	cmp	r3, #0
 8001a3c:	d05b      	beq.n	8001af6 <__aeabi_dsub+0x29e>
 8001a3e:	2d00      	cmp	r5, #0
 8001a40:	d100      	bne.n	8001a44 <__aeabi_dsub+0x1ec>
 8001a42:	e12c      	b.n	8001c9e <__aeabi_dsub+0x446>
 8001a44:	465b      	mov	r3, fp
 8001a46:	4666      	mov	r6, ip
 8001a48:	075f      	lsls	r7, r3, #29
 8001a4a:	08d2      	lsrs	r2, r2, #3
 8001a4c:	4317      	orrs	r7, r2
 8001a4e:	08dd      	lsrs	r5, r3, #3
 8001a50:	003b      	movs	r3, r7
 8001a52:	432b      	orrs	r3, r5
 8001a54:	d100      	bne.n	8001a58 <__aeabi_dsub+0x200>
 8001a56:	e0e2      	b.n	8001c1e <__aeabi_dsub+0x3c6>
 8001a58:	2480      	movs	r4, #128	@ 0x80
 8001a5a:	0324      	lsls	r4, r4, #12
 8001a5c:	432c      	orrs	r4, r5
 8001a5e:	0324      	lsls	r4, r4, #12
 8001a60:	4d56      	ldr	r5, [pc, #344]	@ (8001bbc <__aeabi_dsub+0x364>)
 8001a62:	0b24      	lsrs	r4, r4, #12
 8001a64:	e08c      	b.n	8001b80 <__aeabi_dsub+0x328>
 8001a66:	4659      	mov	r1, fp
 8001a68:	4311      	orrs	r1, r2
 8001a6a:	d100      	bne.n	8001a6e <__aeabi_dsub+0x216>
 8001a6c:	e0d5      	b.n	8001c1a <__aeabi_dsub+0x3c2>
 8001a6e:	1e59      	subs	r1, r3, #1
 8001a70:	2b01      	cmp	r3, #1
 8001a72:	d100      	bne.n	8001a76 <__aeabi_dsub+0x21e>
 8001a74:	e1b9      	b.n	8001dea <__aeabi_dsub+0x592>
 8001a76:	42bb      	cmp	r3, r7
 8001a78:	d100      	bne.n	8001a7c <__aeabi_dsub+0x224>
 8001a7a:	e1b1      	b.n	8001de0 <__aeabi_dsub+0x588>
 8001a7c:	2701      	movs	r7, #1
 8001a7e:	000b      	movs	r3, r1
 8001a80:	2938      	cmp	r1, #56	@ 0x38
 8001a82:	dd00      	ble.n	8001a86 <__aeabi_dsub+0x22e>
 8001a84:	e740      	b.n	8001908 <__aeabi_dsub+0xb0>
 8001a86:	e72a      	b.n	80018de <__aeabi_dsub+0x86>
 8001a88:	4661      	mov	r1, ip
 8001a8a:	2701      	movs	r7, #1
 8001a8c:	4079      	eors	r1, r7
 8001a8e:	468c      	mov	ip, r1
 8001a90:	4566      	cmp	r6, ip
 8001a92:	d1d2      	bne.n	8001a3a <__aeabi_dsub+0x1e2>
 8001a94:	2b00      	cmp	r3, #0
 8001a96:	d100      	bne.n	8001a9a <__aeabi_dsub+0x242>
 8001a98:	e0c5      	b.n	8001c26 <__aeabi_dsub+0x3ce>
 8001a9a:	2d00      	cmp	r5, #0
 8001a9c:	d000      	beq.n	8001aa0 <__aeabi_dsub+0x248>
 8001a9e:	e155      	b.n	8001d4c <__aeabi_dsub+0x4f4>
 8001aa0:	464b      	mov	r3, r9
 8001aa2:	0025      	movs	r5, r4
 8001aa4:	4305      	orrs	r5, r0
 8001aa6:	d100      	bne.n	8001aaa <__aeabi_dsub+0x252>
 8001aa8:	e212      	b.n	8001ed0 <__aeabi_dsub+0x678>
 8001aaa:	1e59      	subs	r1, r3, #1
 8001aac:	468c      	mov	ip, r1
 8001aae:	2b01      	cmp	r3, #1
 8001ab0:	d100      	bne.n	8001ab4 <__aeabi_dsub+0x25c>
 8001ab2:	e249      	b.n	8001f48 <__aeabi_dsub+0x6f0>
 8001ab4:	4d41      	ldr	r5, [pc, #260]	@ (8001bbc <__aeabi_dsub+0x364>)
 8001ab6:	42ab      	cmp	r3, r5
 8001ab8:	d100      	bne.n	8001abc <__aeabi_dsub+0x264>
 8001aba:	e28f      	b.n	8001fdc <__aeabi_dsub+0x784>
 8001abc:	2701      	movs	r7, #1
 8001abe:	2938      	cmp	r1, #56	@ 0x38
 8001ac0:	dc11      	bgt.n	8001ae6 <__aeabi_dsub+0x28e>
 8001ac2:	4663      	mov	r3, ip
 8001ac4:	2b1f      	cmp	r3, #31
 8001ac6:	dd00      	ble.n	8001aca <__aeabi_dsub+0x272>
 8001ac8:	e25b      	b.n	8001f82 <__aeabi_dsub+0x72a>
 8001aca:	4661      	mov	r1, ip
 8001acc:	2320      	movs	r3, #32
 8001ace:	0027      	movs	r7, r4
 8001ad0:	1a5b      	subs	r3, r3, r1
 8001ad2:	0005      	movs	r5, r0
 8001ad4:	4098      	lsls	r0, r3
 8001ad6:	409f      	lsls	r7, r3
 8001ad8:	40cd      	lsrs	r5, r1
 8001ada:	1e43      	subs	r3, r0, #1
 8001adc:	4198      	sbcs	r0, r3
 8001ade:	40cc      	lsrs	r4, r1
 8001ae0:	432f      	orrs	r7, r5
 8001ae2:	4307      	orrs	r7, r0
 8001ae4:	44a3      	add	fp, r4
 8001ae6:	18bf      	adds	r7, r7, r2
 8001ae8:	4297      	cmp	r7, r2
 8001aea:	4192      	sbcs	r2, r2
 8001aec:	4252      	negs	r2, r2
 8001aee:	445a      	add	r2, fp
 8001af0:	0014      	movs	r4, r2
 8001af2:	464d      	mov	r5, r9
 8001af4:	e787      	b.n	8001a06 <__aeabi_dsub+0x1ae>
 8001af6:	4f34      	ldr	r7, [pc, #208]	@ (8001bc8 <__aeabi_dsub+0x370>)
 8001af8:	1c6b      	adds	r3, r5, #1
 8001afa:	423b      	tst	r3, r7
 8001afc:	d000      	beq.n	8001b00 <__aeabi_dsub+0x2a8>
 8001afe:	e0b6      	b.n	8001c6e <__aeabi_dsub+0x416>
 8001b00:	4659      	mov	r1, fp
 8001b02:	0023      	movs	r3, r4
 8001b04:	4311      	orrs	r1, r2
 8001b06:	000f      	movs	r7, r1
 8001b08:	4303      	orrs	r3, r0
 8001b0a:	2d00      	cmp	r5, #0
 8001b0c:	d000      	beq.n	8001b10 <__aeabi_dsub+0x2b8>
 8001b0e:	e126      	b.n	8001d5e <__aeabi_dsub+0x506>
 8001b10:	2b00      	cmp	r3, #0
 8001b12:	d100      	bne.n	8001b16 <__aeabi_dsub+0x2be>
 8001b14:	e1c0      	b.n	8001e98 <__aeabi_dsub+0x640>
 8001b16:	2900      	cmp	r1, #0
 8001b18:	d100      	bne.n	8001b1c <__aeabi_dsub+0x2c4>
 8001b1a:	e0a1      	b.n	8001c60 <__aeabi_dsub+0x408>
 8001b1c:	1a83      	subs	r3, r0, r2
 8001b1e:	4698      	mov	r8, r3
 8001b20:	465b      	mov	r3, fp
 8001b22:	4540      	cmp	r0, r8
 8001b24:	41ad      	sbcs	r5, r5
 8001b26:	1ae3      	subs	r3, r4, r3
 8001b28:	426d      	negs	r5, r5
 8001b2a:	1b5b      	subs	r3, r3, r5
 8001b2c:	2580      	movs	r5, #128	@ 0x80
 8001b2e:	042d      	lsls	r5, r5, #16
 8001b30:	422b      	tst	r3, r5
 8001b32:	d100      	bne.n	8001b36 <__aeabi_dsub+0x2de>
 8001b34:	e14b      	b.n	8001dce <__aeabi_dsub+0x576>
 8001b36:	465b      	mov	r3, fp
 8001b38:	1a10      	subs	r0, r2, r0
 8001b3a:	4282      	cmp	r2, r0
 8001b3c:	4192      	sbcs	r2, r2
 8001b3e:	1b1c      	subs	r4, r3, r4
 8001b40:	0007      	movs	r7, r0
 8001b42:	2601      	movs	r6, #1
 8001b44:	4663      	mov	r3, ip
 8001b46:	4252      	negs	r2, r2
 8001b48:	1aa4      	subs	r4, r4, r2
 8001b4a:	4327      	orrs	r7, r4
 8001b4c:	401e      	ands	r6, r3
 8001b4e:	2f00      	cmp	r7, #0
 8001b50:	d100      	bne.n	8001b54 <__aeabi_dsub+0x2fc>
 8001b52:	e142      	b.n	8001dda <__aeabi_dsub+0x582>
 8001b54:	422c      	tst	r4, r5
 8001b56:	d100      	bne.n	8001b5a <__aeabi_dsub+0x302>
 8001b58:	e26d      	b.n	8002036 <__aeabi_dsub+0x7de>
 8001b5a:	4b19      	ldr	r3, [pc, #100]	@ (8001bc0 <__aeabi_dsub+0x368>)
 8001b5c:	2501      	movs	r5, #1
 8001b5e:	401c      	ands	r4, r3
 8001b60:	e71b      	b.n	800199a <__aeabi_dsub+0x142>
 8001b62:	42bd      	cmp	r5, r7
 8001b64:	d100      	bne.n	8001b68 <__aeabi_dsub+0x310>
 8001b66:	e13b      	b.n	8001de0 <__aeabi_dsub+0x588>
 8001b68:	2701      	movs	r7, #1
 8001b6a:	2b38      	cmp	r3, #56	@ 0x38
 8001b6c:	dd00      	ble.n	8001b70 <__aeabi_dsub+0x318>
 8001b6e:	e745      	b.n	80019fc <__aeabi_dsub+0x1a4>
 8001b70:	2780      	movs	r7, #128	@ 0x80
 8001b72:	4659      	mov	r1, fp
 8001b74:	043f      	lsls	r7, r7, #16
 8001b76:	4339      	orrs	r1, r7
 8001b78:	468b      	mov	fp, r1
 8001b7a:	e72a      	b.n	80019d2 <__aeabi_dsub+0x17a>
 8001b7c:	2400      	movs	r4, #0
 8001b7e:	2700      	movs	r7, #0
 8001b80:	052d      	lsls	r5, r5, #20
 8001b82:	4325      	orrs	r5, r4
 8001b84:	07f6      	lsls	r6, r6, #31
 8001b86:	4335      	orrs	r5, r6
 8001b88:	0038      	movs	r0, r7
 8001b8a:	0029      	movs	r1, r5
 8001b8c:	b003      	add	sp, #12
 8001b8e:	bcf0      	pop	{r4, r5, r6, r7}
 8001b90:	46bb      	mov	fp, r7
 8001b92:	46b2      	mov	sl, r6
 8001b94:	46a9      	mov	r9, r5
 8001b96:	46a0      	mov	r8, r4
 8001b98:	bdf0      	pop	{r4, r5, r6, r7, pc}
 8001b9a:	077b      	lsls	r3, r7, #29
 8001b9c:	d004      	beq.n	8001ba8 <__aeabi_dsub+0x350>
 8001b9e:	230f      	movs	r3, #15
 8001ba0:	403b      	ands	r3, r7
 8001ba2:	2b04      	cmp	r3, #4
 8001ba4:	d000      	beq.n	8001ba8 <__aeabi_dsub+0x350>
 8001ba6:	e6e7      	b.n	8001978 <__aeabi_dsub+0x120>
 8001ba8:	002b      	movs	r3, r5
 8001baa:	08f8      	lsrs	r0, r7, #3
 8001bac:	4a03      	ldr	r2, [pc, #12]	@ (8001bbc <__aeabi_dsub+0x364>)
 8001bae:	0767      	lsls	r7, r4, #29
 8001bb0:	4307      	orrs	r7, r0
 8001bb2:	08e5      	lsrs	r5, r4, #3
 8001bb4:	4293      	cmp	r3, r2
 8001bb6:	d100      	bne.n	8001bba <__aeabi_dsub+0x362>
 8001bb8:	e74a      	b.n	8001a50 <__aeabi_dsub+0x1f8>
 8001bba:	e0a5      	b.n	8001d08 <__aeabi_dsub+0x4b0>
 8001bbc:	000007ff 	.word	0x000007ff
 8001bc0:	ff7fffff 	.word	0xff7fffff
 8001bc4:	fffff801 	.word	0xfffff801
 8001bc8:	000007fe 	.word	0x000007fe
 8001bcc:	0038      	movs	r0, r7
 8001bce:	f000 fb19 	bl	8002204 <__clzsi2>
 8001bd2:	0003      	movs	r3, r0
 8001bd4:	3318      	adds	r3, #24
 8001bd6:	2b1f      	cmp	r3, #31
 8001bd8:	dc00      	bgt.n	8001bdc <__aeabi_dsub+0x384>
 8001bda:	e6a7      	b.n	800192c <__aeabi_dsub+0xd4>
 8001bdc:	003a      	movs	r2, r7
 8001bde:	3808      	subs	r0, #8
 8001be0:	4082      	lsls	r2, r0
 8001be2:	429d      	cmp	r5, r3
 8001be4:	dd00      	ble.n	8001be8 <__aeabi_dsub+0x390>
 8001be6:	e08a      	b.n	8001cfe <__aeabi_dsub+0x4a6>
 8001be8:	1b5b      	subs	r3, r3, r5
 8001bea:	1c58      	adds	r0, r3, #1
 8001bec:	281f      	cmp	r0, #31
 8001bee:	dc00      	bgt.n	8001bf2 <__aeabi_dsub+0x39a>
 8001bf0:	e1d8      	b.n	8001fa4 <__aeabi_dsub+0x74c>
 8001bf2:	0017      	movs	r7, r2
 8001bf4:	3b1f      	subs	r3, #31
 8001bf6:	40df      	lsrs	r7, r3
 8001bf8:	2820      	cmp	r0, #32
 8001bfa:	d005      	beq.n	8001c08 <__aeabi_dsub+0x3b0>
 8001bfc:	2340      	movs	r3, #64	@ 0x40
 8001bfe:	1a1b      	subs	r3, r3, r0
 8001c00:	409a      	lsls	r2, r3
 8001c02:	1e53      	subs	r3, r2, #1
 8001c04:	419a      	sbcs	r2, r3
 8001c06:	4317      	orrs	r7, r2
 8001c08:	2500      	movs	r5, #0
 8001c0a:	2f00      	cmp	r7, #0
 8001c0c:	d100      	bne.n	8001c10 <__aeabi_dsub+0x3b8>
 8001c0e:	e0e5      	b.n	8001ddc <__aeabi_dsub+0x584>
 8001c10:	077b      	lsls	r3, r7, #29
 8001c12:	d000      	beq.n	8001c16 <__aeabi_dsub+0x3be>
 8001c14:	e6ab      	b.n	800196e <__aeabi_dsub+0x116>
 8001c16:	002c      	movs	r4, r5
 8001c18:	e7c6      	b.n	8001ba8 <__aeabi_dsub+0x350>
 8001c1a:	08c0      	lsrs	r0, r0, #3
 8001c1c:	e7c6      	b.n	8001bac <__aeabi_dsub+0x354>
 8001c1e:	2700      	movs	r7, #0
 8001c20:	2400      	movs	r4, #0
 8001c22:	4dd1      	ldr	r5, [pc, #836]	@ (8001f68 <__aeabi_dsub+0x710>)
 8001c24:	e7ac      	b.n	8001b80 <__aeabi_dsub+0x328>
 8001c26:	4fd1      	ldr	r7, [pc, #836]	@ (8001f6c <__aeabi_dsub+0x714>)
 8001c28:	1c6b      	adds	r3, r5, #1
 8001c2a:	423b      	tst	r3, r7
 8001c2c:	d171      	bne.n	8001d12 <__aeabi_dsub+0x4ba>
 8001c2e:	0023      	movs	r3, r4
 8001c30:	4303      	orrs	r3, r0
 8001c32:	2d00      	cmp	r5, #0
 8001c34:	d000      	beq.n	8001c38 <__aeabi_dsub+0x3e0>
 8001c36:	e14e      	b.n	8001ed6 <__aeabi_dsub+0x67e>
 8001c38:	4657      	mov	r7, sl
 8001c3a:	2b00      	cmp	r3, #0
 8001c3c:	d100      	bne.n	8001c40 <__aeabi_dsub+0x3e8>
 8001c3e:	e1b5      	b.n	8001fac <__aeabi_dsub+0x754>
 8001c40:	2f00      	cmp	r7, #0
 8001c42:	d00d      	beq.n	8001c60 <__aeabi_dsub+0x408>
 8001c44:	1883      	adds	r3, r0, r2
 8001c46:	4283      	cmp	r3, r0
 8001c48:	4180      	sbcs	r0, r0
 8001c4a:	445c      	add	r4, fp
 8001c4c:	4240      	negs	r0, r0
 8001c4e:	1824      	adds	r4, r4, r0
 8001c50:	0222      	lsls	r2, r4, #8
 8001c52:	d500      	bpl.n	8001c56 <__aeabi_dsub+0x3fe>
 8001c54:	e1c8      	b.n	8001fe8 <__aeabi_dsub+0x790>
 8001c56:	001f      	movs	r7, r3
 8001c58:	4698      	mov	r8, r3
 8001c5a:	4327      	orrs	r7, r4
 8001c5c:	d100      	bne.n	8001c60 <__aeabi_dsub+0x408>
 8001c5e:	e0bc      	b.n	8001dda <__aeabi_dsub+0x582>
 8001c60:	4643      	mov	r3, r8
 8001c62:	0767      	lsls	r7, r4, #29
 8001c64:	08db      	lsrs	r3, r3, #3
 8001c66:	431f      	orrs	r7, r3
 8001c68:	08e5      	lsrs	r5, r4, #3
 8001c6a:	2300      	movs	r3, #0
 8001c6c:	e04c      	b.n	8001d08 <__aeabi_dsub+0x4b0>
 8001c6e:	1a83      	subs	r3, r0, r2
 8001c70:	4698      	mov	r8, r3
 8001c72:	465b      	mov	r3, fp
 8001c74:	4540      	cmp	r0, r8
 8001c76:	41bf      	sbcs	r7, r7
 8001c78:	1ae3      	subs	r3, r4, r3
 8001c7a:	427f      	negs	r7, r7
 8001c7c:	1bdb      	subs	r3, r3, r7
 8001c7e:	021f      	lsls	r7, r3, #8
 8001c80:	d47c      	bmi.n	8001d7c <__aeabi_dsub+0x524>
 8001c82:	4647      	mov	r7, r8
 8001c84:	431f      	orrs	r7, r3
 8001c86:	d100      	bne.n	8001c8a <__aeabi_dsub+0x432>
 8001c88:	e0a6      	b.n	8001dd8 <__aeabi_dsub+0x580>
 8001c8a:	001c      	movs	r4, r3
 8001c8c:	4647      	mov	r7, r8
 8001c8e:	e645      	b.n	800191c <__aeabi_dsub+0xc4>
 8001c90:	4cb7      	ldr	r4, [pc, #732]	@ (8001f70 <__aeabi_dsub+0x718>)
 8001c92:	1aed      	subs	r5, r5, r3
 8001c94:	4014      	ands	r4, r2
 8001c96:	077b      	lsls	r3, r7, #29
 8001c98:	d000      	beq.n	8001c9c <__aeabi_dsub+0x444>
 8001c9a:	e780      	b.n	8001b9e <__aeabi_dsub+0x346>
 8001c9c:	e784      	b.n	8001ba8 <__aeabi_dsub+0x350>
 8001c9e:	464b      	mov	r3, r9
 8001ca0:	0025      	movs	r5, r4
 8001ca2:	4305      	orrs	r5, r0
 8001ca4:	d066      	beq.n	8001d74 <__aeabi_dsub+0x51c>
 8001ca6:	1e5f      	subs	r7, r3, #1
 8001ca8:	2b01      	cmp	r3, #1
 8001caa:	d100      	bne.n	8001cae <__aeabi_dsub+0x456>
 8001cac:	e0fc      	b.n	8001ea8 <__aeabi_dsub+0x650>
 8001cae:	4dae      	ldr	r5, [pc, #696]	@ (8001f68 <__aeabi_dsub+0x710>)
 8001cb0:	42ab      	cmp	r3, r5
 8001cb2:	d100      	bne.n	8001cb6 <__aeabi_dsub+0x45e>
 8001cb4:	e15e      	b.n	8001f74 <__aeabi_dsub+0x71c>
 8001cb6:	4666      	mov	r6, ip
 8001cb8:	2f38      	cmp	r7, #56	@ 0x38
 8001cba:	dc00      	bgt.n	8001cbe <__aeabi_dsub+0x466>
 8001cbc:	e0b4      	b.n	8001e28 <__aeabi_dsub+0x5d0>
 8001cbe:	2001      	movs	r0, #1
 8001cc0:	1a17      	subs	r7, r2, r0
 8001cc2:	42ba      	cmp	r2, r7
 8001cc4:	4192      	sbcs	r2, r2
 8001cc6:	465b      	mov	r3, fp
 8001cc8:	4252      	negs	r2, r2
 8001cca:	464d      	mov	r5, r9
 8001ccc:	1a9c      	subs	r4, r3, r2
 8001cce:	e620      	b.n	8001912 <__aeabi_dsub+0xba>
 8001cd0:	0767      	lsls	r7, r4, #29
 8001cd2:	08c0      	lsrs	r0, r0, #3
 8001cd4:	4307      	orrs	r7, r0
 8001cd6:	08e5      	lsrs	r5, r4, #3
 8001cd8:	e6ba      	b.n	8001a50 <__aeabi_dsub+0x1f8>
 8001cda:	001f      	movs	r7, r3
 8001cdc:	4659      	mov	r1, fp
 8001cde:	3f20      	subs	r7, #32
 8001ce0:	40f9      	lsrs	r1, r7
 8001ce2:	000f      	movs	r7, r1
 8001ce4:	2b20      	cmp	r3, #32
 8001ce6:	d005      	beq.n	8001cf4 <__aeabi_dsub+0x49c>
 8001ce8:	2140      	movs	r1, #64	@ 0x40
 8001cea:	1acb      	subs	r3, r1, r3
 8001cec:	4659      	mov	r1, fp
 8001cee:	4099      	lsls	r1, r3
 8001cf0:	430a      	orrs	r2, r1
 8001cf2:	4692      	mov	sl, r2
 8001cf4:	4653      	mov	r3, sl
 8001cf6:	1e5a      	subs	r2, r3, #1
 8001cf8:	4193      	sbcs	r3, r2
 8001cfa:	431f      	orrs	r7, r3
 8001cfc:	e604      	b.n	8001908 <__aeabi_dsub+0xb0>
 8001cfe:	1aeb      	subs	r3, r5, r3
 8001d00:	4d9b      	ldr	r5, [pc, #620]	@ (8001f70 <__aeabi_dsub+0x718>)
 8001d02:	4015      	ands	r5, r2
 8001d04:	076f      	lsls	r7, r5, #29
 8001d06:	08ed      	lsrs	r5, r5, #3
 8001d08:	032c      	lsls	r4, r5, #12
 8001d0a:	055d      	lsls	r5, r3, #21
 8001d0c:	0b24      	lsrs	r4, r4, #12
 8001d0e:	0d6d      	lsrs	r5, r5, #21
 8001d10:	e736      	b.n	8001b80 <__aeabi_dsub+0x328>
 8001d12:	4d95      	ldr	r5, [pc, #596]	@ (8001f68 <__aeabi_dsub+0x710>)
 8001d14:	42ab      	cmp	r3, r5
 8001d16:	d100      	bne.n	8001d1a <__aeabi_dsub+0x4c2>
 8001d18:	e0d6      	b.n	8001ec8 <__aeabi_dsub+0x670>
 8001d1a:	1882      	adds	r2, r0, r2
 8001d1c:	0021      	movs	r1, r4
 8001d1e:	4282      	cmp	r2, r0
 8001d20:	4180      	sbcs	r0, r0
 8001d22:	4459      	add	r1, fp
 8001d24:	4240      	negs	r0, r0
 8001d26:	1808      	adds	r0, r1, r0
 8001d28:	07c7      	lsls	r7, r0, #31
 8001d2a:	0852      	lsrs	r2, r2, #1
 8001d2c:	4317      	orrs	r7, r2
 8001d2e:	0844      	lsrs	r4, r0, #1
 8001d30:	0752      	lsls	r2, r2, #29
 8001d32:	d400      	bmi.n	8001d36 <__aeabi_dsub+0x4de>
 8001d34:	e185      	b.n	8002042 <__aeabi_dsub+0x7ea>
 8001d36:	220f      	movs	r2, #15
 8001d38:	001d      	movs	r5, r3
 8001d3a:	403a      	ands	r2, r7
 8001d3c:	2a04      	cmp	r2, #4
 8001d3e:	d000      	beq.n	8001d42 <__aeabi_dsub+0x4ea>
 8001d40:	e61a      	b.n	8001978 <__aeabi_dsub+0x120>
 8001d42:	08ff      	lsrs	r7, r7, #3
 8001d44:	0764      	lsls	r4, r4, #29
 8001d46:	4327      	orrs	r7, r4
 8001d48:	0905      	lsrs	r5, r0, #4
 8001d4a:	e7dd      	b.n	8001d08 <__aeabi_dsub+0x4b0>
 8001d4c:	465b      	mov	r3, fp
 8001d4e:	08d2      	lsrs	r2, r2, #3
 8001d50:	075f      	lsls	r7, r3, #29
 8001d52:	4317      	orrs	r7, r2
 8001d54:	08dd      	lsrs	r5, r3, #3
 8001d56:	e67b      	b.n	8001a50 <__aeabi_dsub+0x1f8>
 8001d58:	2700      	movs	r7, #0
 8001d5a:	2400      	movs	r4, #0
 8001d5c:	e710      	b.n	8001b80 <__aeabi_dsub+0x328>
 8001d5e:	2b00      	cmp	r3, #0
 8001d60:	d000      	beq.n	8001d64 <__aeabi_dsub+0x50c>
 8001d62:	e0d6      	b.n	8001f12 <__aeabi_dsub+0x6ba>
 8001d64:	2900      	cmp	r1, #0
 8001d66:	d000      	beq.n	8001d6a <__aeabi_dsub+0x512>
 8001d68:	e12f      	b.n	8001fca <__aeabi_dsub+0x772>
 8001d6a:	2480      	movs	r4, #128	@ 0x80
 8001d6c:	2600      	movs	r6, #0
 8001d6e:	4d7e      	ldr	r5, [pc, #504]	@ (8001f68 <__aeabi_dsub+0x710>)
 8001d70:	0324      	lsls	r4, r4, #12
 8001d72:	e705      	b.n	8001b80 <__aeabi_dsub+0x328>
 8001d74:	4666      	mov	r6, ip
 8001d76:	465c      	mov	r4, fp
 8001d78:	08d0      	lsrs	r0, r2, #3
 8001d7a:	e717      	b.n	8001bac <__aeabi_dsub+0x354>
 8001d7c:	465b      	mov	r3, fp
 8001d7e:	1a17      	subs	r7, r2, r0
 8001d80:	42ba      	cmp	r2, r7
 8001d82:	4192      	sbcs	r2, r2
 8001d84:	1b1c      	subs	r4, r3, r4
 8001d86:	2601      	movs	r6, #1
 8001d88:	4663      	mov	r3, ip
 8001d8a:	4252      	negs	r2, r2
 8001d8c:	1aa4      	subs	r4, r4, r2
 8001d8e:	401e      	ands	r6, r3
 8001d90:	e5c4      	b.n	800191c <__aeabi_dsub+0xc4>
 8001d92:	1883      	adds	r3, r0, r2
 8001d94:	4283      	cmp	r3, r0
 8001d96:	4180      	sbcs	r0, r0
 8001d98:	445c      	add	r4, fp
 8001d9a:	4240      	negs	r0, r0
 8001d9c:	1825      	adds	r5, r4, r0
 8001d9e:	022a      	lsls	r2, r5, #8
 8001da0:	d400      	bmi.n	8001da4 <__aeabi_dsub+0x54c>
 8001da2:	e0da      	b.n	8001f5a <__aeabi_dsub+0x702>
 8001da4:	4a72      	ldr	r2, [pc, #456]	@ (8001f70 <__aeabi_dsub+0x718>)
 8001da6:	085b      	lsrs	r3, r3, #1
 8001da8:	4015      	ands	r5, r2
 8001daa:	07ea      	lsls	r2, r5, #31
 8001dac:	431a      	orrs	r2, r3
 8001dae:	0869      	lsrs	r1, r5, #1
 8001db0:	075b      	lsls	r3, r3, #29
 8001db2:	d400      	bmi.n	8001db6 <__aeabi_dsub+0x55e>
 8001db4:	e14a      	b.n	800204c <__aeabi_dsub+0x7f4>
 8001db6:	230f      	movs	r3, #15
 8001db8:	4013      	ands	r3, r2
 8001dba:	2b04      	cmp	r3, #4
 8001dbc:	d100      	bne.n	8001dc0 <__aeabi_dsub+0x568>
 8001dbe:	e0fc      	b.n	8001fba <__aeabi_dsub+0x762>
 8001dc0:	1d17      	adds	r7, r2, #4
 8001dc2:	4297      	cmp	r7, r2
 8001dc4:	41a4      	sbcs	r4, r4
 8001dc6:	4264      	negs	r4, r4
 8001dc8:	2502      	movs	r5, #2
 8001dca:	1864      	adds	r4, r4, r1
 8001dcc:	e6ec      	b.n	8001ba8 <__aeabi_dsub+0x350>
 8001dce:	4647      	mov	r7, r8
 8001dd0:	001c      	movs	r4, r3
 8001dd2:	431f      	orrs	r7, r3
 8001dd4:	d000      	beq.n	8001dd8 <__aeabi_dsub+0x580>
 8001dd6:	e743      	b.n	8001c60 <__aeabi_dsub+0x408>
 8001dd8:	2600      	movs	r6, #0
 8001dda:	2500      	movs	r5, #0
 8001ddc:	2400      	movs	r4, #0
 8001dde:	e6cf      	b.n	8001b80 <__aeabi_dsub+0x328>
 8001de0:	08c0      	lsrs	r0, r0, #3
 8001de2:	0767      	lsls	r7, r4, #29
 8001de4:	4307      	orrs	r7, r0
 8001de6:	08e5      	lsrs	r5, r4, #3
 8001de8:	e632      	b.n	8001a50 <__aeabi_dsub+0x1f8>
 8001dea:	1a87      	subs	r7, r0, r2
 8001dec:	465b      	mov	r3, fp
 8001dee:	42b8      	cmp	r0, r7
 8001df0:	4180      	sbcs	r0, r0
 8001df2:	1ae4      	subs	r4, r4, r3
 8001df4:	4240      	negs	r0, r0
 8001df6:	1a24      	subs	r4, r4, r0
 8001df8:	0223      	lsls	r3, r4, #8
 8001dfa:	d428      	bmi.n	8001e4e <__aeabi_dsub+0x5f6>
 8001dfc:	0763      	lsls	r3, r4, #29
 8001dfe:	08ff      	lsrs	r7, r7, #3
 8001e00:	431f      	orrs	r7, r3
 8001e02:	08e5      	lsrs	r5, r4, #3
 8001e04:	2301      	movs	r3, #1
 8001e06:	e77f      	b.n	8001d08 <__aeabi_dsub+0x4b0>
 8001e08:	2b00      	cmp	r3, #0
 8001e0a:	d100      	bne.n	8001e0e <__aeabi_dsub+0x5b6>
 8001e0c:	e673      	b.n	8001af6 <__aeabi_dsub+0x29e>
 8001e0e:	464b      	mov	r3, r9
 8001e10:	1b5f      	subs	r7, r3, r5
 8001e12:	003b      	movs	r3, r7
 8001e14:	2d00      	cmp	r5, #0
 8001e16:	d100      	bne.n	8001e1a <__aeabi_dsub+0x5c2>
 8001e18:	e742      	b.n	8001ca0 <__aeabi_dsub+0x448>
 8001e1a:	2f38      	cmp	r7, #56	@ 0x38
 8001e1c:	dd00      	ble.n	8001e20 <__aeabi_dsub+0x5c8>
 8001e1e:	e0ec      	b.n	8001ffa <__aeabi_dsub+0x7a2>
 8001e20:	2380      	movs	r3, #128	@ 0x80
 8001e22:	000e      	movs	r6, r1
 8001e24:	041b      	lsls	r3, r3, #16
 8001e26:	431c      	orrs	r4, r3
 8001e28:	2f1f      	cmp	r7, #31
 8001e2a:	dc25      	bgt.n	8001e78 <__aeabi_dsub+0x620>
 8001e2c:	2520      	movs	r5, #32
 8001e2e:	0023      	movs	r3, r4
 8001e30:	1bed      	subs	r5, r5, r7
 8001e32:	0001      	movs	r1, r0
 8001e34:	40a8      	lsls	r0, r5
 8001e36:	40ab      	lsls	r3, r5
 8001e38:	40f9      	lsrs	r1, r7
 8001e3a:	1e45      	subs	r5, r0, #1
 8001e3c:	41a8      	sbcs	r0, r5
 8001e3e:	430b      	orrs	r3, r1
 8001e40:	40fc      	lsrs	r4, r7
 8001e42:	4318      	orrs	r0, r3
 8001e44:	465b      	mov	r3, fp
 8001e46:	1b1b      	subs	r3, r3, r4
 8001e48:	469b      	mov	fp, r3
 8001e4a:	e739      	b.n	8001cc0 <__aeabi_dsub+0x468>
 8001e4c:	4666      	mov	r6, ip
 8001e4e:	2501      	movs	r5, #1
 8001e50:	e562      	b.n	8001918 <__aeabi_dsub+0xc0>
 8001e52:	001f      	movs	r7, r3
 8001e54:	4659      	mov	r1, fp
 8001e56:	3f20      	subs	r7, #32
 8001e58:	40f9      	lsrs	r1, r7
 8001e5a:	468c      	mov	ip, r1
 8001e5c:	2b20      	cmp	r3, #32
 8001e5e:	d005      	beq.n	8001e6c <__aeabi_dsub+0x614>
 8001e60:	2740      	movs	r7, #64	@ 0x40
 8001e62:	4659      	mov	r1, fp
 8001e64:	1afb      	subs	r3, r7, r3
 8001e66:	4099      	lsls	r1, r3
 8001e68:	430a      	orrs	r2, r1
 8001e6a:	4692      	mov	sl, r2
 8001e6c:	4657      	mov	r7, sl
 8001e6e:	1e7b      	subs	r3, r7, #1
 8001e70:	419f      	sbcs	r7, r3
 8001e72:	4663      	mov	r3, ip
 8001e74:	431f      	orrs	r7, r3
 8001e76:	e5c1      	b.n	80019fc <__aeabi_dsub+0x1a4>
 8001e78:	003b      	movs	r3, r7
 8001e7a:	0025      	movs	r5, r4
 8001e7c:	3b20      	subs	r3, #32
 8001e7e:	40dd      	lsrs	r5, r3
 8001e80:	2f20      	cmp	r7, #32
 8001e82:	d004      	beq.n	8001e8e <__aeabi_dsub+0x636>
 8001e84:	2340      	movs	r3, #64	@ 0x40
 8001e86:	1bdb      	subs	r3, r3, r7
 8001e88:	409c      	lsls	r4, r3
 8001e8a:	4320      	orrs	r0, r4
 8001e8c:	4680      	mov	r8, r0
 8001e8e:	4640      	mov	r0, r8
 8001e90:	1e43      	subs	r3, r0, #1
 8001e92:	4198      	sbcs	r0, r3
 8001e94:	4328      	orrs	r0, r5
 8001e96:	e713      	b.n	8001cc0 <__aeabi_dsub+0x468>
 8001e98:	2900      	cmp	r1, #0
 8001e9a:	d09d      	beq.n	8001dd8 <__aeabi_dsub+0x580>
 8001e9c:	2601      	movs	r6, #1
 8001e9e:	4663      	mov	r3, ip
 8001ea0:	465c      	mov	r4, fp
 8001ea2:	4690      	mov	r8, r2
 8001ea4:	401e      	ands	r6, r3
 8001ea6:	e6db      	b.n	8001c60 <__aeabi_dsub+0x408>
 8001ea8:	1a17      	subs	r7, r2, r0
 8001eaa:	465b      	mov	r3, fp
 8001eac:	42ba      	cmp	r2, r7
 8001eae:	4192      	sbcs	r2, r2
 8001eb0:	1b1c      	subs	r4, r3, r4
 8001eb2:	4252      	negs	r2, r2
 8001eb4:	1aa4      	subs	r4, r4, r2
 8001eb6:	0223      	lsls	r3, r4, #8
 8001eb8:	d4c8      	bmi.n	8001e4c <__aeabi_dsub+0x5f4>
 8001eba:	0763      	lsls	r3, r4, #29
 8001ebc:	08ff      	lsrs	r7, r7, #3
 8001ebe:	431f      	orrs	r7, r3
 8001ec0:	4666      	mov	r6, ip
 8001ec2:	2301      	movs	r3, #1
 8001ec4:	08e5      	lsrs	r5, r4, #3
 8001ec6:	e71f      	b.n	8001d08 <__aeabi_dsub+0x4b0>
 8001ec8:	001d      	movs	r5, r3
 8001eca:	2400      	movs	r4, #0
 8001ecc:	2700      	movs	r7, #0
 8001ece:	e657      	b.n	8001b80 <__aeabi_dsub+0x328>
 8001ed0:	465c      	mov	r4, fp
 8001ed2:	08d0      	lsrs	r0, r2, #3
 8001ed4:	e66a      	b.n	8001bac <__aeabi_dsub+0x354>
 8001ed6:	2b00      	cmp	r3, #0
 8001ed8:	d100      	bne.n	8001edc <__aeabi_dsub+0x684>
 8001eda:	e737      	b.n	8001d4c <__aeabi_dsub+0x4f4>
 8001edc:	4653      	mov	r3, sl
 8001ede:	08c0      	lsrs	r0, r0, #3
 8001ee0:	0767      	lsls	r7, r4, #29
 8001ee2:	4307      	orrs	r7, r0
 8001ee4:	08e5      	lsrs	r5, r4, #3
 8001ee6:	2b00      	cmp	r3, #0
 8001ee8:	d100      	bne.n	8001eec <__aeabi_dsub+0x694>
 8001eea:	e5b1      	b.n	8001a50 <__aeabi_dsub+0x1f8>
 8001eec:	2380      	movs	r3, #128	@ 0x80
 8001eee:	031b      	lsls	r3, r3, #12
 8001ef0:	421d      	tst	r5, r3
 8001ef2:	d008      	beq.n	8001f06 <__aeabi_dsub+0x6ae>
 8001ef4:	4659      	mov	r1, fp
 8001ef6:	08c8      	lsrs	r0, r1, #3
 8001ef8:	4218      	tst	r0, r3
 8001efa:	d104      	bne.n	8001f06 <__aeabi_dsub+0x6ae>
 8001efc:	08d2      	lsrs	r2, r2, #3
 8001efe:	0749      	lsls	r1, r1, #29
 8001f00:	430a      	orrs	r2, r1
 8001f02:	0017      	movs	r7, r2
 8001f04:	0005      	movs	r5, r0
 8001f06:	0f7b      	lsrs	r3, r7, #29
 8001f08:	00ff      	lsls	r7, r7, #3
 8001f0a:	08ff      	lsrs	r7, r7, #3
 8001f0c:	075b      	lsls	r3, r3, #29
 8001f0e:	431f      	orrs	r7, r3
 8001f10:	e59e      	b.n	8001a50 <__aeabi_dsub+0x1f8>
 8001f12:	08c0      	lsrs	r0, r0, #3
 8001f14:	0763      	lsls	r3, r4, #29
 8001f16:	4318      	orrs	r0, r3
 8001f18:	08e5      	lsrs	r5, r4, #3
 8001f1a:	2900      	cmp	r1, #0
 8001f1c:	d053      	beq.n	8001fc6 <__aeabi_dsub+0x76e>
 8001f1e:	2380      	movs	r3, #128	@ 0x80
 8001f20:	031b      	lsls	r3, r3, #12
 8001f22:	421d      	tst	r5, r3
 8001f24:	d00a      	beq.n	8001f3c <__aeabi_dsub+0x6e4>
 8001f26:	4659      	mov	r1, fp
 8001f28:	08cc      	lsrs	r4, r1, #3
 8001f2a:	421c      	tst	r4, r3
 8001f2c:	d106      	bne.n	8001f3c <__aeabi_dsub+0x6e4>
 8001f2e:	2601      	movs	r6, #1
 8001f30:	4663      	mov	r3, ip
 8001f32:	0025      	movs	r5, r4
 8001f34:	08d0      	lsrs	r0, r2, #3
 8001f36:	0749      	lsls	r1, r1, #29
 8001f38:	4308      	orrs	r0, r1
 8001f3a:	401e      	ands	r6, r3
 8001f3c:	0f47      	lsrs	r7, r0, #29
 8001f3e:	00c0      	lsls	r0, r0, #3
 8001f40:	08c0      	lsrs	r0, r0, #3
 8001f42:	077f      	lsls	r7, r7, #29
 8001f44:	4307      	orrs	r7, r0
 8001f46:	e583      	b.n	8001a50 <__aeabi_dsub+0x1f8>
 8001f48:	1883      	adds	r3, r0, r2
 8001f4a:	4293      	cmp	r3, r2
 8001f4c:	4192      	sbcs	r2, r2
 8001f4e:	445c      	add	r4, fp
 8001f50:	4252      	negs	r2, r2
 8001f52:	18a5      	adds	r5, r4, r2
 8001f54:	022a      	lsls	r2, r5, #8
 8001f56:	d500      	bpl.n	8001f5a <__aeabi_dsub+0x702>
 8001f58:	e724      	b.n	8001da4 <__aeabi_dsub+0x54c>
 8001f5a:	076f      	lsls	r7, r5, #29
 8001f5c:	08db      	lsrs	r3, r3, #3
 8001f5e:	431f      	orrs	r7, r3
 8001f60:	08ed      	lsrs	r5, r5, #3
 8001f62:	2301      	movs	r3, #1
 8001f64:	e6d0      	b.n	8001d08 <__aeabi_dsub+0x4b0>
 8001f66:	46c0      	nop			@ (mov r8, r8)
 8001f68:	000007ff 	.word	0x000007ff
 8001f6c:	000007fe 	.word	0x000007fe
 8001f70:	ff7fffff 	.word	0xff7fffff
 8001f74:	465b      	mov	r3, fp
 8001f76:	08d2      	lsrs	r2, r2, #3
 8001f78:	075f      	lsls	r7, r3, #29
 8001f7a:	4666      	mov	r6, ip
 8001f7c:	4317      	orrs	r7, r2
 8001f7e:	08dd      	lsrs	r5, r3, #3
 8001f80:	e566      	b.n	8001a50 <__aeabi_dsub+0x1f8>
 8001f82:	0025      	movs	r5, r4
 8001f84:	3b20      	subs	r3, #32
 8001f86:	40dd      	lsrs	r5, r3
 8001f88:	4663      	mov	r3, ip
 8001f8a:	2b20      	cmp	r3, #32
 8001f8c:	d005      	beq.n	8001f9a <__aeabi_dsub+0x742>
 8001f8e:	2340      	movs	r3, #64	@ 0x40
 8001f90:	4661      	mov	r1, ip
 8001f92:	1a5b      	subs	r3, r3, r1
 8001f94:	409c      	lsls	r4, r3
 8001f96:	4320      	orrs	r0, r4
 8001f98:	4680      	mov	r8, r0
 8001f9a:	4647      	mov	r7, r8
 8001f9c:	1e7b      	subs	r3, r7, #1
 8001f9e:	419f      	sbcs	r7, r3
 8001fa0:	432f      	orrs	r7, r5
 8001fa2:	e5a0      	b.n	8001ae6 <__aeabi_dsub+0x28e>
 8001fa4:	2120      	movs	r1, #32
 8001fa6:	2700      	movs	r7, #0
 8001fa8:	1a09      	subs	r1, r1, r0
 8001faa:	e4d2      	b.n	8001952 <__aeabi_dsub+0xfa>
 8001fac:	2f00      	cmp	r7, #0
 8001fae:	d100      	bne.n	8001fb2 <__aeabi_dsub+0x75a>
 8001fb0:	e713      	b.n	8001dda <__aeabi_dsub+0x582>
 8001fb2:	465c      	mov	r4, fp
 8001fb4:	0017      	movs	r7, r2
 8001fb6:	2500      	movs	r5, #0
 8001fb8:	e5f6      	b.n	8001ba8 <__aeabi_dsub+0x350>
 8001fba:	08d7      	lsrs	r7, r2, #3
 8001fbc:	0749      	lsls	r1, r1, #29
 8001fbe:	2302      	movs	r3, #2
 8001fc0:	430f      	orrs	r7, r1
 8001fc2:	092d      	lsrs	r5, r5, #4
 8001fc4:	e6a0      	b.n	8001d08 <__aeabi_dsub+0x4b0>
 8001fc6:	0007      	movs	r7, r0
 8001fc8:	e542      	b.n	8001a50 <__aeabi_dsub+0x1f8>
 8001fca:	465b      	mov	r3, fp
 8001fcc:	2601      	movs	r6, #1
 8001fce:	075f      	lsls	r7, r3, #29
 8001fd0:	08dd      	lsrs	r5, r3, #3
 8001fd2:	4663      	mov	r3, ip
 8001fd4:	08d2      	lsrs	r2, r2, #3
 8001fd6:	4317      	orrs	r7, r2
 8001fd8:	401e      	ands	r6, r3
 8001fda:	e539      	b.n	8001a50 <__aeabi_dsub+0x1f8>
 8001fdc:	465b      	mov	r3, fp
 8001fde:	08d2      	lsrs	r2, r2, #3
 8001fe0:	075f      	lsls	r7, r3, #29
 8001fe2:	4317      	orrs	r7, r2
 8001fe4:	08dd      	lsrs	r5, r3, #3
 8001fe6:	e533      	b.n	8001a50 <__aeabi_dsub+0x1f8>
 8001fe8:	4a1e      	ldr	r2, [pc, #120]	@ (8002064 <__aeabi_dsub+0x80c>)
 8001fea:	08db      	lsrs	r3, r3, #3
 8001fec:	4022      	ands	r2, r4
 8001fee:	0757      	lsls	r7, r2, #29
 8001ff0:	0252      	lsls	r2, r2, #9
 8001ff2:	2501      	movs	r5, #1
 8001ff4:	431f      	orrs	r7, r3
 8001ff6:	0b14      	lsrs	r4, r2, #12
 8001ff8:	e5c2      	b.n	8001b80 <__aeabi_dsub+0x328>
 8001ffa:	000e      	movs	r6, r1
 8001ffc:	2001      	movs	r0, #1
 8001ffe:	e65f      	b.n	8001cc0 <__aeabi_dsub+0x468>
 8002000:	2b00      	cmp	r3, #0
 8002002:	d00d      	beq.n	8002020 <__aeabi_dsub+0x7c8>
 8002004:	464b      	mov	r3, r9
 8002006:	1b5b      	subs	r3, r3, r5
 8002008:	469c      	mov	ip, r3
 800200a:	2d00      	cmp	r5, #0
 800200c:	d100      	bne.n	8002010 <__aeabi_dsub+0x7b8>
 800200e:	e548      	b.n	8001aa2 <__aeabi_dsub+0x24a>
 8002010:	2701      	movs	r7, #1
 8002012:	2b38      	cmp	r3, #56	@ 0x38
 8002014:	dd00      	ble.n	8002018 <__aeabi_dsub+0x7c0>
 8002016:	e566      	b.n	8001ae6 <__aeabi_dsub+0x28e>
 8002018:	2380      	movs	r3, #128	@ 0x80
 800201a:	041b      	lsls	r3, r3, #16
 800201c:	431c      	orrs	r4, r3
 800201e:	e550      	b.n	8001ac2 <__aeabi_dsub+0x26a>
 8002020:	1c6b      	adds	r3, r5, #1
 8002022:	4d11      	ldr	r5, [pc, #68]	@ (8002068 <__aeabi_dsub+0x810>)
 8002024:	422b      	tst	r3, r5
 8002026:	d000      	beq.n	800202a <__aeabi_dsub+0x7d2>
 8002028:	e673      	b.n	8001d12 <__aeabi_dsub+0x4ba>
 800202a:	4659      	mov	r1, fp
 800202c:	0023      	movs	r3, r4
 800202e:	4311      	orrs	r1, r2
 8002030:	468a      	mov	sl, r1
 8002032:	4303      	orrs	r3, r0
 8002034:	e600      	b.n	8001c38 <__aeabi_dsub+0x3e0>
 8002036:	0767      	lsls	r7, r4, #29
 8002038:	08c0      	lsrs	r0, r0, #3
 800203a:	2300      	movs	r3, #0
 800203c:	4307      	orrs	r7, r0
 800203e:	08e5      	lsrs	r5, r4, #3
 8002040:	e662      	b.n	8001d08 <__aeabi_dsub+0x4b0>
 8002042:	0764      	lsls	r4, r4, #29
 8002044:	08ff      	lsrs	r7, r7, #3
 8002046:	4327      	orrs	r7, r4
 8002048:	0905      	lsrs	r5, r0, #4
 800204a:	e65d      	b.n	8001d08 <__aeabi_dsub+0x4b0>
 800204c:	08d2      	lsrs	r2, r2, #3
 800204e:	0749      	lsls	r1, r1, #29
 8002050:	4311      	orrs	r1, r2
 8002052:	000f      	movs	r7, r1
 8002054:	2302      	movs	r3, #2
 8002056:	092d      	lsrs	r5, r5, #4
 8002058:	e656      	b.n	8001d08 <__aeabi_dsub+0x4b0>
 800205a:	0007      	movs	r7, r0
 800205c:	e5a4      	b.n	8001ba8 <__aeabi_dsub+0x350>
 800205e:	0038      	movs	r0, r7
 8002060:	e48f      	b.n	8001982 <__aeabi_dsub+0x12a>
 8002062:	46c0      	nop			@ (mov r8, r8)
 8002064:	ff7fffff 	.word	0xff7fffff
 8002068:	000007fe 	.word	0x000007fe

0800206c <__aeabi_d2iz>:
 800206c:	000b      	movs	r3, r1
 800206e:	0002      	movs	r2, r0
 8002070:	b570      	push	{r4, r5, r6, lr}
 8002072:	4d16      	ldr	r5, [pc, #88]	@ (80020cc <__aeabi_d2iz+0x60>)
 8002074:	030c      	lsls	r4, r1, #12
 8002076:	b082      	sub	sp, #8
 8002078:	0049      	lsls	r1, r1, #1
 800207a:	2000      	movs	r0, #0
 800207c:	9200      	str	r2, [sp, #0]
 800207e:	9301      	str	r3, [sp, #4]
 8002080:	0b24      	lsrs	r4, r4, #12
 8002082:	0d49      	lsrs	r1, r1, #21
 8002084:	0fde      	lsrs	r6, r3, #31
 8002086:	42a9      	cmp	r1, r5
 8002088:	dd04      	ble.n	8002094 <__aeabi_d2iz+0x28>
 800208a:	4811      	ldr	r0, [pc, #68]	@ (80020d0 <__aeabi_d2iz+0x64>)
 800208c:	4281      	cmp	r1, r0
 800208e:	dd03      	ble.n	8002098 <__aeabi_d2iz+0x2c>
 8002090:	4b10      	ldr	r3, [pc, #64]	@ (80020d4 <__aeabi_d2iz+0x68>)
 8002092:	18f0      	adds	r0, r6, r3
 8002094:	b002      	add	sp, #8
 8002096:	bd70      	pop	{r4, r5, r6, pc}
 8002098:	2080      	movs	r0, #128	@ 0x80
 800209a:	0340      	lsls	r0, r0, #13
 800209c:	4320      	orrs	r0, r4
 800209e:	4c0e      	ldr	r4, [pc, #56]	@ (80020d8 <__aeabi_d2iz+0x6c>)
 80020a0:	1a64      	subs	r4, r4, r1
 80020a2:	2c1f      	cmp	r4, #31
 80020a4:	dd08      	ble.n	80020b8 <__aeabi_d2iz+0x4c>
 80020a6:	4b0d      	ldr	r3, [pc, #52]	@ (80020dc <__aeabi_d2iz+0x70>)
 80020a8:	1a5b      	subs	r3, r3, r1
 80020aa:	40d8      	lsrs	r0, r3
 80020ac:	0003      	movs	r3, r0
 80020ae:	4258      	negs	r0, r3
 80020b0:	2e00      	cmp	r6, #0
 80020b2:	d1ef      	bne.n	8002094 <__aeabi_d2iz+0x28>
 80020b4:	0018      	movs	r0, r3
 80020b6:	e7ed      	b.n	8002094 <__aeabi_d2iz+0x28>
 80020b8:	4b09      	ldr	r3, [pc, #36]	@ (80020e0 <__aeabi_d2iz+0x74>)
 80020ba:	9a00      	ldr	r2, [sp, #0]
 80020bc:	469c      	mov	ip, r3
 80020be:	0003      	movs	r3, r0
 80020c0:	4461      	add	r1, ip
 80020c2:	408b      	lsls	r3, r1
 80020c4:	40e2      	lsrs	r2, r4
 80020c6:	4313      	orrs	r3, r2
 80020c8:	e7f1      	b.n	80020ae <__aeabi_d2iz+0x42>
 80020ca:	46c0      	nop			@ (mov r8, r8)
 80020cc:	000003fe 	.word	0x000003fe
 80020d0:	0000041d 	.word	0x0000041d
 80020d4:	7fffffff 	.word	0x7fffffff
 80020d8:	00000433 	.word	0x00000433
 80020dc:	00000413 	.word	0x00000413
 80020e0:	fffffbed 	.word	0xfffffbed

080020e4 <__aeabi_i2d>:
 80020e4:	b570      	push	{r4, r5, r6, lr}
 80020e6:	2800      	cmp	r0, #0
 80020e8:	d016      	beq.n	8002118 <__aeabi_i2d+0x34>
 80020ea:	17c3      	asrs	r3, r0, #31
 80020ec:	18c5      	adds	r5, r0, r3
 80020ee:	405d      	eors	r5, r3
 80020f0:	0fc4      	lsrs	r4, r0, #31
 80020f2:	0028      	movs	r0, r5
 80020f4:	f000 f886 	bl	8002204 <__clzsi2>
 80020f8:	4b10      	ldr	r3, [pc, #64]	@ (800213c <__aeabi_i2d+0x58>)
 80020fa:	1a1b      	subs	r3, r3, r0
 80020fc:	055b      	lsls	r3, r3, #21
 80020fe:	0d5b      	lsrs	r3, r3, #21
 8002100:	280a      	cmp	r0, #10
 8002102:	dc14      	bgt.n	800212e <__aeabi_i2d+0x4a>
 8002104:	0002      	movs	r2, r0
 8002106:	002e      	movs	r6, r5
 8002108:	3215      	adds	r2, #21
 800210a:	4096      	lsls	r6, r2
 800210c:	220b      	movs	r2, #11
 800210e:	1a12      	subs	r2, r2, r0
 8002110:	40d5      	lsrs	r5, r2
 8002112:	032d      	lsls	r5, r5, #12
 8002114:	0b2d      	lsrs	r5, r5, #12
 8002116:	e003      	b.n	8002120 <__aeabi_i2d+0x3c>
 8002118:	2400      	movs	r4, #0
 800211a:	2300      	movs	r3, #0
 800211c:	2500      	movs	r5, #0
 800211e:	2600      	movs	r6, #0
 8002120:	051b      	lsls	r3, r3, #20
 8002122:	432b      	orrs	r3, r5
 8002124:	07e4      	lsls	r4, r4, #31
 8002126:	4323      	orrs	r3, r4
 8002128:	0030      	movs	r0, r6
 800212a:	0019      	movs	r1, r3
 800212c:	bd70      	pop	{r4, r5, r6, pc}
 800212e:	380b      	subs	r0, #11
 8002130:	4085      	lsls	r5, r0
 8002132:	032d      	lsls	r5, r5, #12
 8002134:	2600      	movs	r6, #0
 8002136:	0b2d      	lsrs	r5, r5, #12
 8002138:	e7f2      	b.n	8002120 <__aeabi_i2d+0x3c>
 800213a:	46c0      	nop			@ (mov r8, r8)
 800213c:	0000041e 	.word	0x0000041e

08002140 <__aeabi_ui2d>:
 8002140:	b510      	push	{r4, lr}
 8002142:	1e04      	subs	r4, r0, #0
 8002144:	d010      	beq.n	8002168 <__aeabi_ui2d+0x28>
 8002146:	f000 f85d 	bl	8002204 <__clzsi2>
 800214a:	4b0e      	ldr	r3, [pc, #56]	@ (8002184 <__aeabi_ui2d+0x44>)
 800214c:	1a1b      	subs	r3, r3, r0
 800214e:	055b      	lsls	r3, r3, #21
 8002150:	0d5b      	lsrs	r3, r3, #21
 8002152:	280a      	cmp	r0, #10
 8002154:	dc0f      	bgt.n	8002176 <__aeabi_ui2d+0x36>
 8002156:	220b      	movs	r2, #11
 8002158:	0021      	movs	r1, r4
 800215a:	1a12      	subs	r2, r2, r0
 800215c:	40d1      	lsrs	r1, r2
 800215e:	3015      	adds	r0, #21
 8002160:	030a      	lsls	r2, r1, #12
 8002162:	4084      	lsls	r4, r0
 8002164:	0b12      	lsrs	r2, r2, #12
 8002166:	e001      	b.n	800216c <__aeabi_ui2d+0x2c>
 8002168:	2300      	movs	r3, #0
 800216a:	2200      	movs	r2, #0
 800216c:	051b      	lsls	r3, r3, #20
 800216e:	4313      	orrs	r3, r2
 8002170:	0020      	movs	r0, r4
 8002172:	0019      	movs	r1, r3
 8002174:	bd10      	pop	{r4, pc}
 8002176:	0022      	movs	r2, r4
 8002178:	380b      	subs	r0, #11
 800217a:	4082      	lsls	r2, r0
 800217c:	0312      	lsls	r2, r2, #12
 800217e:	2400      	movs	r4, #0
 8002180:	0b12      	lsrs	r2, r2, #12
 8002182:	e7f3      	b.n	800216c <__aeabi_ui2d+0x2c>
 8002184:	0000041e 	.word	0x0000041e

08002188 <__aeabi_cdrcmple>:
 8002188:	4684      	mov	ip, r0
 800218a:	0010      	movs	r0, r2
 800218c:	4662      	mov	r2, ip
 800218e:	468c      	mov	ip, r1
 8002190:	0019      	movs	r1, r3
 8002192:	4663      	mov	r3, ip
 8002194:	e000      	b.n	8002198 <__aeabi_cdcmpeq>
 8002196:	46c0      	nop			@ (mov r8, r8)

08002198 <__aeabi_cdcmpeq>:
 8002198:	b51f      	push	{r0, r1, r2, r3, r4, lr}
 800219a:	f000 f905 	bl	80023a8 <__ledf2>
 800219e:	2800      	cmp	r0, #0
 80021a0:	d401      	bmi.n	80021a6 <__aeabi_cdcmpeq+0xe>
 80021a2:	2100      	movs	r1, #0
 80021a4:	42c8      	cmn	r0, r1
 80021a6:	bd1f      	pop	{r0, r1, r2, r3, r4, pc}

080021a8 <__aeabi_dcmpeq>:
 80021a8:	b510      	push	{r4, lr}
 80021aa:	f000 f849 	bl	8002240 <__eqdf2>
 80021ae:	4240      	negs	r0, r0
 80021b0:	3001      	adds	r0, #1
 80021b2:	bd10      	pop	{r4, pc}

080021b4 <__aeabi_dcmplt>:
 80021b4:	b510      	push	{r4, lr}
 80021b6:	f000 f8f7 	bl	80023a8 <__ledf2>
 80021ba:	2800      	cmp	r0, #0
 80021bc:	db01      	blt.n	80021c2 <__aeabi_dcmplt+0xe>
 80021be:	2000      	movs	r0, #0
 80021c0:	bd10      	pop	{r4, pc}
 80021c2:	2001      	movs	r0, #1
 80021c4:	bd10      	pop	{r4, pc}
 80021c6:	46c0      	nop			@ (mov r8, r8)

080021c8 <__aeabi_dcmple>:
 80021c8:	b510      	push	{r4, lr}
 80021ca:	f000 f8ed 	bl	80023a8 <__ledf2>
 80021ce:	2800      	cmp	r0, #0
 80021d0:	dd01      	ble.n	80021d6 <__aeabi_dcmple+0xe>
 80021d2:	2000      	movs	r0, #0
 80021d4:	bd10      	pop	{r4, pc}
 80021d6:	2001      	movs	r0, #1
 80021d8:	bd10      	pop	{r4, pc}
 80021da:	46c0      	nop			@ (mov r8, r8)

080021dc <__aeabi_dcmpgt>:
 80021dc:	b510      	push	{r4, lr}
 80021de:	f000 f873 	bl	80022c8 <__gedf2>
 80021e2:	2800      	cmp	r0, #0
 80021e4:	dc01      	bgt.n	80021ea <__aeabi_dcmpgt+0xe>
 80021e6:	2000      	movs	r0, #0
 80021e8:	bd10      	pop	{r4, pc}
 80021ea:	2001      	movs	r0, #1
 80021ec:	bd10      	pop	{r4, pc}
 80021ee:	46c0      	nop			@ (mov r8, r8)

080021f0 <__aeabi_dcmpge>:
 80021f0:	b510      	push	{r4, lr}
 80021f2:	f000 f869 	bl	80022c8 <__gedf2>
 80021f6:	2800      	cmp	r0, #0
 80021f8:	da01      	bge.n	80021fe <__aeabi_dcmpge+0xe>
 80021fa:	2000      	movs	r0, #0
 80021fc:	bd10      	pop	{r4, pc}
 80021fe:	2001      	movs	r0, #1
 8002200:	bd10      	pop	{r4, pc}
 8002202:	46c0      	nop			@ (mov r8, r8)

08002204 <__clzsi2>:
 8002204:	211c      	movs	r1, #28
 8002206:	2301      	movs	r3, #1
 8002208:	041b      	lsls	r3, r3, #16
 800220a:	4298      	cmp	r0, r3
 800220c:	d301      	bcc.n	8002212 <__clzsi2+0xe>
 800220e:	0c00      	lsrs	r0, r0, #16
 8002210:	3910      	subs	r1, #16
 8002212:	0a1b      	lsrs	r3, r3, #8
 8002214:	4298      	cmp	r0, r3
 8002216:	d301      	bcc.n	800221c <__clzsi2+0x18>
 8002218:	0a00      	lsrs	r0, r0, #8
 800221a:	3908      	subs	r1, #8
 800221c:	091b      	lsrs	r3, r3, #4
 800221e:	4298      	cmp	r0, r3
 8002220:	d301      	bcc.n	8002226 <__clzsi2+0x22>
 8002222:	0900      	lsrs	r0, r0, #4
 8002224:	3904      	subs	r1, #4
 8002226:	a202      	add	r2, pc, #8	@ (adr r2, 8002230 <__clzsi2+0x2c>)
 8002228:	5c10      	ldrb	r0, [r2, r0]
 800222a:	1840      	adds	r0, r0, r1
 800222c:	4770      	bx	lr
 800222e:	46c0      	nop			@ (mov r8, r8)
 8002230:	02020304 	.word	0x02020304
 8002234:	01010101 	.word	0x01010101
	...

08002240 <__eqdf2>:
 8002240:	b5f0      	push	{r4, r5, r6, r7, lr}
 8002242:	4657      	mov	r7, sl
 8002244:	46de      	mov	lr, fp
 8002246:	464e      	mov	r6, r9
 8002248:	4645      	mov	r5, r8
 800224a:	b5e0      	push	{r5, r6, r7, lr}
 800224c:	000d      	movs	r5, r1
 800224e:	0004      	movs	r4, r0
 8002250:	0fe8      	lsrs	r0, r5, #31
 8002252:	4683      	mov	fp, r0
 8002254:	0309      	lsls	r1, r1, #12
 8002256:	0fd8      	lsrs	r0, r3, #31
 8002258:	0b09      	lsrs	r1, r1, #12
 800225a:	4682      	mov	sl, r0
 800225c:	4819      	ldr	r0, [pc, #100]	@ (80022c4 <__eqdf2+0x84>)
 800225e:	468c      	mov	ip, r1
 8002260:	031f      	lsls	r7, r3, #12
 8002262:	0069      	lsls	r1, r5, #1
 8002264:	005e      	lsls	r6, r3, #1
 8002266:	0d49      	lsrs	r1, r1, #21
 8002268:	0b3f      	lsrs	r7, r7, #12
 800226a:	0d76      	lsrs	r6, r6, #21
 800226c:	4281      	cmp	r1, r0
 800226e:	d018      	beq.n	80022a2 <__eqdf2+0x62>
 8002270:	4286      	cmp	r6, r0
 8002272:	d00f      	beq.n	8002294 <__eqdf2+0x54>
 8002274:	2001      	movs	r0, #1
 8002276:	42b1      	cmp	r1, r6
 8002278:	d10d      	bne.n	8002296 <__eqdf2+0x56>
 800227a:	45bc      	cmp	ip, r7
 800227c:	d10b      	bne.n	8002296 <__eqdf2+0x56>
 800227e:	4294      	cmp	r4, r2
 8002280:	d109      	bne.n	8002296 <__eqdf2+0x56>
 8002282:	45d3      	cmp	fp, sl
 8002284:	d01c      	beq.n	80022c0 <__eqdf2+0x80>
 8002286:	2900      	cmp	r1, #0
 8002288:	d105      	bne.n	8002296 <__eqdf2+0x56>
 800228a:	4660      	mov	r0, ip
 800228c:	4320      	orrs	r0, r4
 800228e:	1e43      	subs	r3, r0, #1
 8002290:	4198      	sbcs	r0, r3
 8002292:	e000      	b.n	8002296 <__eqdf2+0x56>
 8002294:	2001      	movs	r0, #1
 8002296:	bcf0      	pop	{r4, r5, r6, r7}
 8002298:	46bb      	mov	fp, r7
 800229a:	46b2      	mov	sl, r6
 800229c:	46a9      	mov	r9, r5
 800229e:	46a0      	mov	r8, r4
 80022a0:	bdf0      	pop	{r4, r5, r6, r7, pc}
 80022a2:	2001      	movs	r0, #1
 80022a4:	428e      	cmp	r6, r1
 80022a6:	d1f6      	bne.n	8002296 <__eqdf2+0x56>
 80022a8:	4661      	mov	r1, ip
 80022aa:	4339      	orrs	r1, r7
 80022ac:	000f      	movs	r7, r1
 80022ae:	4317      	orrs	r7, r2
 80022b0:	4327      	orrs	r7, r4
 80022b2:	d1f0      	bne.n	8002296 <__eqdf2+0x56>
 80022b4:	465b      	mov	r3, fp
 80022b6:	4652      	mov	r2, sl
 80022b8:	1a98      	subs	r0, r3, r2
 80022ba:	1e43      	subs	r3, r0, #1
 80022bc:	4198      	sbcs	r0, r3
 80022be:	e7ea      	b.n	8002296 <__eqdf2+0x56>
 80022c0:	2000      	movs	r0, #0
 80022c2:	e7e8      	b.n	8002296 <__eqdf2+0x56>
 80022c4:	000007ff 	.word	0x000007ff

080022c8 <__gedf2>:
 80022c8:	b5f0      	push	{r4, r5, r6, r7, lr}
 80022ca:	4657      	mov	r7, sl
 80022cc:	464e      	mov	r6, r9
 80022ce:	4645      	mov	r5, r8
 80022d0:	46de      	mov	lr, fp
 80022d2:	b5e0      	push	{r5, r6, r7, lr}
 80022d4:	000d      	movs	r5, r1
 80022d6:	030e      	lsls	r6, r1, #12
 80022d8:	0049      	lsls	r1, r1, #1
 80022da:	0d49      	lsrs	r1, r1, #21
 80022dc:	468a      	mov	sl, r1
 80022de:	0fdf      	lsrs	r7, r3, #31
 80022e0:	0fe9      	lsrs	r1, r5, #31
 80022e2:	46bc      	mov	ip, r7
 80022e4:	b083      	sub	sp, #12
 80022e6:	4f2f      	ldr	r7, [pc, #188]	@ (80023a4 <__gedf2+0xdc>)
 80022e8:	0004      	movs	r4, r0
 80022ea:	4680      	mov	r8, r0
 80022ec:	9101      	str	r1, [sp, #4]
 80022ee:	0058      	lsls	r0, r3, #1
 80022f0:	0319      	lsls	r1, r3, #12
 80022f2:	4691      	mov	r9, r2
 80022f4:	0b36      	lsrs	r6, r6, #12
 80022f6:	0b09      	lsrs	r1, r1, #12
 80022f8:	0d40      	lsrs	r0, r0, #21
 80022fa:	45ba      	cmp	sl, r7
 80022fc:	d01d      	beq.n	800233a <__gedf2+0x72>
 80022fe:	42b8      	cmp	r0, r7
 8002300:	d00d      	beq.n	800231e <__gedf2+0x56>
 8002302:	4657      	mov	r7, sl
 8002304:	2f00      	cmp	r7, #0
 8002306:	d12a      	bne.n	800235e <__gedf2+0x96>
 8002308:	4334      	orrs	r4, r6
 800230a:	2800      	cmp	r0, #0
 800230c:	d124      	bne.n	8002358 <__gedf2+0x90>
 800230e:	430a      	orrs	r2, r1
 8002310:	d036      	beq.n	8002380 <__gedf2+0xb8>
 8002312:	2c00      	cmp	r4, #0
 8002314:	d141      	bne.n	800239a <__gedf2+0xd2>
 8002316:	4663      	mov	r3, ip
 8002318:	0058      	lsls	r0, r3, #1
 800231a:	3801      	subs	r0, #1
 800231c:	e015      	b.n	800234a <__gedf2+0x82>
 800231e:	4311      	orrs	r1, r2
 8002320:	d138      	bne.n	8002394 <__gedf2+0xcc>
 8002322:	4653      	mov	r3, sl
 8002324:	2b00      	cmp	r3, #0
 8002326:	d101      	bne.n	800232c <__gedf2+0x64>
 8002328:	4326      	orrs	r6, r4
 800232a:	d0f4      	beq.n	8002316 <__gedf2+0x4e>
 800232c:	9b01      	ldr	r3, [sp, #4]
 800232e:	4563      	cmp	r3, ip
 8002330:	d107      	bne.n	8002342 <__gedf2+0x7a>
 8002332:	9b01      	ldr	r3, [sp, #4]
 8002334:	0058      	lsls	r0, r3, #1
 8002336:	3801      	subs	r0, #1
 8002338:	e007      	b.n	800234a <__gedf2+0x82>
 800233a:	4326      	orrs	r6, r4
 800233c:	d12a      	bne.n	8002394 <__gedf2+0xcc>
 800233e:	4550      	cmp	r0, sl
 8002340:	d021      	beq.n	8002386 <__gedf2+0xbe>
 8002342:	2001      	movs	r0, #1
 8002344:	9b01      	ldr	r3, [sp, #4]
 8002346:	425f      	negs	r7, r3
 8002348:	4338      	orrs	r0, r7
 800234a:	b003      	add	sp, #12
 800234c:	bcf0      	pop	{r4, r5, r6, r7}
 800234e:	46bb      	mov	fp, r7
 8002350:	46b2      	mov	sl, r6
 8002352:	46a9      	mov	r9, r5
 8002354:	46a0      	mov	r8, r4
 8002356:	bdf0      	pop	{r4, r5, r6, r7, pc}
 8002358:	2c00      	cmp	r4, #0
 800235a:	d0dc      	beq.n	8002316 <__gedf2+0x4e>
 800235c:	e7e6      	b.n	800232c <__gedf2+0x64>
 800235e:	2800      	cmp	r0, #0
 8002360:	d0ef      	beq.n	8002342 <__gedf2+0x7a>
 8002362:	9b01      	ldr	r3, [sp, #4]
 8002364:	4563      	cmp	r3, ip
 8002366:	d1ec      	bne.n	8002342 <__gedf2+0x7a>
 8002368:	4582      	cmp	sl, r0
 800236a:	dcea      	bgt.n	8002342 <__gedf2+0x7a>
 800236c:	dbe1      	blt.n	8002332 <__gedf2+0x6a>
 800236e:	428e      	cmp	r6, r1
 8002370:	d8e7      	bhi.n	8002342 <__gedf2+0x7a>
 8002372:	d1de      	bne.n	8002332 <__gedf2+0x6a>
 8002374:	45c8      	cmp	r8, r9
 8002376:	d8e4      	bhi.n	8002342 <__gedf2+0x7a>
 8002378:	2000      	movs	r0, #0
 800237a:	45c8      	cmp	r8, r9
 800237c:	d2e5      	bcs.n	800234a <__gedf2+0x82>
 800237e:	e7d8      	b.n	8002332 <__gedf2+0x6a>
 8002380:	2c00      	cmp	r4, #0
 8002382:	d0e2      	beq.n	800234a <__gedf2+0x82>
 8002384:	e7dd      	b.n	8002342 <__gedf2+0x7a>
 8002386:	4311      	orrs	r1, r2
 8002388:	d104      	bne.n	8002394 <__gedf2+0xcc>
 800238a:	9b01      	ldr	r3, [sp, #4]
 800238c:	4563      	cmp	r3, ip
 800238e:	d1d8      	bne.n	8002342 <__gedf2+0x7a>
 8002390:	2000      	movs	r0, #0
 8002392:	e7da      	b.n	800234a <__gedf2+0x82>
 8002394:	2002      	movs	r0, #2
 8002396:	4240      	negs	r0, r0
 8002398:	e7d7      	b.n	800234a <__gedf2+0x82>
 800239a:	9b01      	ldr	r3, [sp, #4]
 800239c:	4563      	cmp	r3, ip
 800239e:	d0e6      	beq.n	800236e <__gedf2+0xa6>
 80023a0:	e7cf      	b.n	8002342 <__gedf2+0x7a>
 80023a2:	46c0      	nop			@ (mov r8, r8)
 80023a4:	000007ff 	.word	0x000007ff

080023a8 <__ledf2>:
 80023a8:	b5f0      	push	{r4, r5, r6, r7, lr}
 80023aa:	4657      	mov	r7, sl
 80023ac:	464e      	mov	r6, r9
 80023ae:	4645      	mov	r5, r8
 80023b0:	46de      	mov	lr, fp
 80023b2:	b5e0      	push	{r5, r6, r7, lr}
 80023b4:	000d      	movs	r5, r1
 80023b6:	030e      	lsls	r6, r1, #12
 80023b8:	0049      	lsls	r1, r1, #1
 80023ba:	0d49      	lsrs	r1, r1, #21
 80023bc:	468a      	mov	sl, r1
 80023be:	0fdf      	lsrs	r7, r3, #31
 80023c0:	0fe9      	lsrs	r1, r5, #31
 80023c2:	46bc      	mov	ip, r7
 80023c4:	b083      	sub	sp, #12
 80023c6:	4f2e      	ldr	r7, [pc, #184]	@ (8002480 <__ledf2+0xd8>)
 80023c8:	0004      	movs	r4, r0
 80023ca:	4680      	mov	r8, r0
 80023cc:	9101      	str	r1, [sp, #4]
 80023ce:	0058      	lsls	r0, r3, #1
 80023d0:	0319      	lsls	r1, r3, #12
 80023d2:	4691      	mov	r9, r2
 80023d4:	0b36      	lsrs	r6, r6, #12
 80023d6:	0b09      	lsrs	r1, r1, #12
 80023d8:	0d40      	lsrs	r0, r0, #21
 80023da:	45ba      	cmp	sl, r7
 80023dc:	d01e      	beq.n	800241c <__ledf2+0x74>
 80023de:	42b8      	cmp	r0, r7
 80023e0:	d00d      	beq.n	80023fe <__ledf2+0x56>
 80023e2:	4657      	mov	r7, sl
 80023e4:	2f00      	cmp	r7, #0
 80023e6:	d127      	bne.n	8002438 <__ledf2+0x90>
 80023e8:	4334      	orrs	r4, r6
 80023ea:	2800      	cmp	r0, #0
 80023ec:	d133      	bne.n	8002456 <__ledf2+0xae>
 80023ee:	430a      	orrs	r2, r1
 80023f0:	d034      	beq.n	800245c <__ledf2+0xb4>
 80023f2:	2c00      	cmp	r4, #0
 80023f4:	d140      	bne.n	8002478 <__ledf2+0xd0>
 80023f6:	4663      	mov	r3, ip
 80023f8:	0058      	lsls	r0, r3, #1
 80023fa:	3801      	subs	r0, #1
 80023fc:	e015      	b.n	800242a <__ledf2+0x82>
 80023fe:	4311      	orrs	r1, r2
 8002400:	d112      	bne.n	8002428 <__ledf2+0x80>
 8002402:	4653      	mov	r3, sl
 8002404:	2b00      	cmp	r3, #0
 8002406:	d101      	bne.n	800240c <__ledf2+0x64>
 8002408:	4326      	orrs	r6, r4
 800240a:	d0f4      	beq.n	80023f6 <__ledf2+0x4e>
 800240c:	9b01      	ldr	r3, [sp, #4]
 800240e:	4563      	cmp	r3, ip
 8002410:	d01d      	beq.n	800244e <__ledf2+0xa6>
 8002412:	2001      	movs	r0, #1
 8002414:	9b01      	ldr	r3, [sp, #4]
 8002416:	425f      	negs	r7, r3
 8002418:	4338      	orrs	r0, r7
 800241a:	e006      	b.n	800242a <__ledf2+0x82>
 800241c:	4326      	orrs	r6, r4
 800241e:	d103      	bne.n	8002428 <__ledf2+0x80>
 8002420:	4550      	cmp	r0, sl
 8002422:	d1f6      	bne.n	8002412 <__ledf2+0x6a>
 8002424:	4311      	orrs	r1, r2
 8002426:	d01c      	beq.n	8002462 <__ledf2+0xba>
 8002428:	2002      	movs	r0, #2
 800242a:	b003      	add	sp, #12
 800242c:	bcf0      	pop	{r4, r5, r6, r7}
 800242e:	46bb      	mov	fp, r7
 8002430:	46b2      	mov	sl, r6
 8002432:	46a9      	mov	r9, r5
 8002434:	46a0      	mov	r8, r4
 8002436:	bdf0      	pop	{r4, r5, r6, r7, pc}
 8002438:	2800      	cmp	r0, #0
 800243a:	d0ea      	beq.n	8002412 <__ledf2+0x6a>
 800243c:	9b01      	ldr	r3, [sp, #4]
 800243e:	4563      	cmp	r3, ip
 8002440:	d1e7      	bne.n	8002412 <__ledf2+0x6a>
 8002442:	4582      	cmp	sl, r0
 8002444:	dce5      	bgt.n	8002412 <__ledf2+0x6a>
 8002446:	db02      	blt.n	800244e <__ledf2+0xa6>
 8002448:	428e      	cmp	r6, r1
 800244a:	d8e2      	bhi.n	8002412 <__ledf2+0x6a>
 800244c:	d00e      	beq.n	800246c <__ledf2+0xc4>
 800244e:	9b01      	ldr	r3, [sp, #4]
 8002450:	0058      	lsls	r0, r3, #1
 8002452:	3801      	subs	r0, #1
 8002454:	e7e9      	b.n	800242a <__ledf2+0x82>
 8002456:	2c00      	cmp	r4, #0
 8002458:	d0cd      	beq.n	80023f6 <__ledf2+0x4e>
 800245a:	e7d7      	b.n	800240c <__ledf2+0x64>
 800245c:	2c00      	cmp	r4, #0
 800245e:	d0e4      	beq.n	800242a <__ledf2+0x82>
 8002460:	e7d7      	b.n	8002412 <__ledf2+0x6a>
 8002462:	9b01      	ldr	r3, [sp, #4]
 8002464:	2000      	movs	r0, #0
 8002466:	4563      	cmp	r3, ip
 8002468:	d0df      	beq.n	800242a <__ledf2+0x82>
 800246a:	e7d2      	b.n	8002412 <__ledf2+0x6a>
 800246c:	45c8      	cmp	r8, r9
 800246e:	d8d0      	bhi.n	8002412 <__ledf2+0x6a>
 8002470:	2000      	movs	r0, #0
 8002472:	45c8      	cmp	r8, r9
 8002474:	d2d9      	bcs.n	800242a <__ledf2+0x82>
 8002476:	e7ea      	b.n	800244e <__ledf2+0xa6>
 8002478:	9b01      	ldr	r3, [sp, #4]
 800247a:	4563      	cmp	r3, ip
 800247c:	d0e4      	beq.n	8002448 <__ledf2+0xa0>
 800247e:	e7c8      	b.n	8002412 <__ledf2+0x6a>
 8002480:	000007ff 	.word	0x000007ff

08002484 <pwmFP7103.part.0>:
        break;
    }
    //     
}

void pwmFP7103()
 8002484:	b5f8      	push	{r3, r4, r5, r6, r7, lr}
 8002486:	464e      	mov	r6, r9
 8002488:	4645      	mov	r5, r8
 800248a:	4657      	mov	r7, sl
 800248c:	46de      	mov	lr, fp
{
    if (menu[18].value)
    {                                                                 // *16 P_3.0 Alarm_Status
        timeWakeUp = menu[11].value * 3600 + menu[12].value * 60 + 1; // *11 P_1.0 Hour_Rise; *12 P_1.1 Minute_Rise
 800248e:	2375      	movs	r3, #117	@ 0x75
void pwmFP7103()
 8002490:	b5e0      	push	{r5, r6, r7, lr}
        timeWakeUp = menu[11].value * 3600 + menu[12].value * 60 + 1; // *11 P_1.0 Hour_Rise; *12 P_1.1 Minute_Rise
 8002492:	4967      	ldr	r1, [pc, #412]	@ (8002630 <pwmFP7103.part.0+0x1ac>)
 8002494:	5cca      	ldrb	r2, [r1, r3]
 8002496:	0113      	lsls	r3, r2, #4
 8002498:	1a9b      	subs	r3, r3, r2
 800249a:	011a      	lsls	r2, r3, #4
 800249c:	1ad2      	subs	r2, r2, r3
 800249e:	237f      	movs	r3, #127	@ 0x7f
 80024a0:	5cc8      	ldrb	r0, [r1, r3]
 80024a2:	0112      	lsls	r2, r2, #4
 80024a4:	0103      	lsls	r3, r0, #4
 80024a6:	1a1b      	subs	r3, r3, r0
 80024a8:	009b      	lsls	r3, r3, #2
 80024aa:	18d2      	adds	r2, r2, r3
 80024ac:	4b61      	ldr	r3, [pc, #388]	@ (8002634 <pwmFP7103.part.0+0x1b0>)
 80024ae:	1c55      	adds	r5, r2, #1
 80024b0:	601d      	str	r5, [r3, #0]
    TIM21->CCR1 = 0;
}

uint8_t hoursDecimal()
{
    uint8_t hoursBCD = ((READ_BIT(RTC->TR, RTC_TR_HT | RTC_TR_HU)) >> RTC_TR_HU_Pos) & 0xFF;
 80024b2:	4b61      	ldr	r3, [pc, #388]	@ (8002638 <pwmFP7103.part.0+0x1b4>)
 80024b4:	681c      	ldr	r4, [r3, #0]
    //  BCD   
}

uint8_t minutesDecimal()
{
    uint8_t minutesBCD = ((READ_BIT(RTC->TR, RTC_TR_MNT | RTC_TR_MNU)) >> RTC_TR_MNU_Pos) & 0xFF;
 80024b6:	681f      	ldr	r7, [r3, #0]
    uint8_t hoursBCD = ((READ_BIT(RTC->TR, RTC_TR_HT | RTC_TR_HU)) >> RTC_TR_HU_Pos) & 0xFF;
 80024b8:	0c24      	lsrs	r4, r4, #16
    //  BCD   
}

uint8_t secondsDecimal()
{
    uint8_t secondsBCD = ((READ_BIT(RTC->TR, RTC_TR_ST | RTC_TR_SU)) >> RTC_TR_SU_Pos) & 0xFF;
 80024ba:	6818      	ldr	r0, [r3, #0]
    return ((hoursBCD >> 4) & 0xF) * 10 + (hoursBCD & 0xF);
 80024bc:	06a3      	lsls	r3, r4, #26
 80024be:	0f9b      	lsrs	r3, r3, #30
 80024c0:	009e      	lsls	r6, r3, #2
 80024c2:	199b      	adds	r3, r3, r6
 80024c4:	260f      	movs	r6, #15
 80024c6:	005b      	lsls	r3, r3, #1
 80024c8:	4034      	ands	r4, r6
 80024ca:	191b      	adds	r3, r3, r4
        timeNow = hoursDecimal() * 3600 + minutesDecimal() * 60 + secondsDecimal() + 1;
 80024cc:	b2db      	uxtb	r3, r3
 80024ce:	011c      	lsls	r4, r3, #4
 80024d0:	1ae3      	subs	r3, r4, r3
 80024d2:	011c      	lsls	r4, r3, #4
 80024d4:	1ae3      	subs	r3, r4, r3
 80024d6:	011b      	lsls	r3, r3, #4
 80024d8:	469c      	mov	ip, r3
    return ((minutesBCD >> 4) & 0xF) * 10 + (minutesBCD & 0xF);
 80024da:	2307      	movs	r3, #7
 80024dc:	4699      	mov	r9, r3
    uint8_t minutesBCD = ((READ_BIT(RTC->TR, RTC_TR_MNT | RTC_TR_MNU)) >> RTC_TR_MNU_Pos) & 0xFF;
 80024de:	0a3f      	lsrs	r7, r7, #8
 80024e0:	b2ff      	uxtb	r7, r7
    return ((minutesBCD >> 4) & 0xF) * 10 + (minutesBCD & 0xF);
 80024e2:	093c      	lsrs	r4, r7, #4
 80024e4:	401c      	ands	r4, r3
 80024e6:	00a3      	lsls	r3, r4, #2
 80024e8:	4698      	mov	r8, r3
    //     BCD

    return ((secondsBCD >> 4) & 0xF) * 10 + (secondsBCD & 0xF);
 80024ea:	464b      	mov	r3, r9
    return ((minutesBCD >> 4) & 0xF) * 10 + (minutesBCD & 0xF);
 80024ec:	4444      	add	r4, r8
 80024ee:	4037      	ands	r7, r6
 80024f0:	0064      	lsls	r4, r4, #1
        timeNow = hoursDecimal() * 3600 + minutesDecimal() * 60 + secondsDecimal() + 1;
 80024f2:	19e4      	adds	r4, r4, r7
    uint8_t secondsBCD = ((READ_BIT(RTC->TR, RTC_TR_ST | RTC_TR_SU)) >> RTC_TR_SU_Pos) & 0xFF;
 80024f4:	b2c0      	uxtb	r0, r0
        timeNow = hoursDecimal() * 3600 + minutesDecimal() * 60 + secondsDecimal() + 1;
 80024f6:	0127      	lsls	r7, r4, #4
 80024f8:	1b3c      	subs	r4, r7, r4
    return ((secondsBCD >> 4) & 0xF) * 10 + (secondsBCD & 0xF);
 80024fa:	0907      	lsrs	r7, r0, #4
 80024fc:	403b      	ands	r3, r7
 80024fe:	009f      	lsls	r7, r3, #2
 8002500:	19db      	adds	r3, r3, r7
 8002502:	4006      	ands	r6, r0
        timeNow = hoursDecimal() * 3600 + minutesDecimal() * 60 + secondsDecimal() + 1;
 8002504:	00a4      	lsls	r4, r4, #2
    return ((secondsBCD >> 4) & 0xF) * 10 + (secondsBCD & 0xF);
 8002506:	005b      	lsls	r3, r3, #1
        timeNow = hoursDecimal() * 3600 + minutesDecimal() * 60 + secondsDecimal() + 1;
 8002508:	4464      	add	r4, ip
 800250a:	199b      	adds	r3, r3, r6
 800250c:	18e3      	adds	r3, r4, r3
 800250e:	1c58      	adds	r0, r3, #1
 8002510:	4681      	mov	r9, r0
 8002512:	464c      	mov	r4, r9
 8002514:	4849      	ldr	r0, [pc, #292]	@ (800263c <pwmFP7103.part.0+0x1b8>)
        if (menu[14].value * 60 >= (timeWakeUp - timeNow))
 8002516:	1ad2      	subs	r2, r2, r3
        timeNow = hoursDecimal() * 3600 + minutesDecimal() * 60 + secondsDecimal() + 1;
 8002518:	6004      	str	r4, [r0, #0]
        if (menu[14].value * 60 >= (timeWakeUp - timeNow))
 800251a:	2093      	movs	r0, #147	@ 0x93
 800251c:	5c09      	ldrb	r1, [r1, r0]
 800251e:	010c      	lsls	r4, r1, #4
 8002520:	1a64      	subs	r4, r4, r1
 8002522:	00a4      	lsls	r4, r4, #2
 8002524:	4294      	cmp	r4, r2
 8002526:	d218      	bcs.n	800255a <pwmFP7103.part.0+0xd6>
        if (!(menu[14].value * 60 >= (timeWakeUp - timeNow)) && (flagDecrementButtonLong || flagIncrementButtonLong))
 8002528:	4b45      	ldr	r3, [pc, #276]	@ (8002640 <pwmFP7103.part.0+0x1bc>)
 800252a:	4a46      	ldr	r2, [pc, #280]	@ (8002644 <pwmFP7103.part.0+0x1c0>)
 800252c:	781b      	ldrb	r3, [r3, #0]
 800252e:	7812      	ldrb	r2, [r2, #0]
 8002530:	4313      	orrs	r3, r2
 8002532:	d00c      	beq.n	800254e <pwmFP7103.part.0+0xca>
            pinEN_OFF();
 8002534:	2380      	movs	r3, #128	@ 0x80
 8002536:	4a44      	ldr	r2, [pc, #272]	@ (8002648 <pwmFP7103.part.0+0x1c4>)
 8002538:	061b      	lsls	r3, r3, #24
 800253a:	6991      	ldr	r1, [r2, #24]
 800253c:	430b      	orrs	r3, r1
            CLEAR_BIT(TIM21->CR1, TIM_CR1_CEN); //  
 800253e:	2101      	movs	r1, #1
            pinEN_OFF();
 8002540:	6193      	str	r3, [r2, #24]
            CLEAR_BIT(TIM21->CR1, TIM_CR1_CEN); //  
 8002542:	4b42      	ldr	r3, [pc, #264]	@ (800264c <pwmFP7103.part.0+0x1c8>)
 8002544:	681a      	ldr	r2, [r3, #0]
 8002546:	438a      	bics	r2, r1
 8002548:	601a      	str	r2, [r3, #0]
            TIM21->CCR1 = 0;
 800254a:	2200      	movs	r2, #0
 800254c:	635a      	str	r2, [r3, #52]	@ 0x34
}
 800254e:	bcf0      	pop	{r4, r5, r6, r7}
 8002550:	46bb      	mov	fp, r7
 8002552:	46b2      	mov	sl, r6
 8002554:	46a9      	mov	r9, r5
 8002556:	46a0      	mov	r8, r4
 8002558:	bdf8      	pop	{r3, r4, r5, r6, r7, pc}
            pinEN_ON();
 800255a:	2380      	movs	r3, #128	@ 0x80
 800255c:	4a3a      	ldr	r2, [pc, #232]	@ (8002648 <pwmFP7103.part.0+0x1c4>)
 800255e:	021b      	lsls	r3, r3, #8
 8002560:	6991      	ldr	r1, [r2, #24]
            TIM21->CCR1 = (uint16_t)((TIM21->ARR + 1) * pow2_24(map(((double)timeNow / timeWakeUp),
 8002562:	0028      	movs	r0, r5
            pinEN_ON();
 8002564:	430b      	orrs	r3, r1
 8002566:	6193      	str	r3, [r2, #24]
            SET_BIT(TIM21->CR1, TIM_CR1_CEN); //  
 8002568:	4b38      	ldr	r3, [pc, #224]	@ (800264c <pwmFP7103.part.0+0x1c8>)
 800256a:	2201      	movs	r2, #1
 800256c:	4698      	mov	r8, r3
 800256e:	681b      	ldr	r3, [r3, #0]
 8002570:	4692      	mov	sl, r2
 8002572:	4313      	orrs	r3, r2
 8002574:	4642      	mov	r2, r8
 8002576:	6013      	str	r3, [r2, #0]
            TIM21->CCR1 = (uint16_t)((TIM21->ARR + 1) * pow2_24(map(((double)timeNow / timeWakeUp),
 8002578:	6ad3      	ldr	r3, [r2, #44]	@ 0x2c
 800257a:	469b      	mov	fp, r3
 800257c:	f7ff fde0 	bl	8002140 <__aeabi_ui2d>
 8002580:	0006      	movs	r6, r0
 8002582:	000f      	movs	r7, r1
                                                                    (uint16_t)(((double)(timeWakeUp - menu[14].value * 60) / timeWakeUp)),
 8002584:	1b28      	subs	r0, r5, r4
 8002586:	f7ff fddb 	bl	8002140 <__aeabi_ui2d>
 800258a:	0032      	movs	r2, r6
 800258c:	003b      	movs	r3, r7
 800258e:	f7fe fb65 	bl	8000c5c <__aeabi_ddiv>
            TIM21->CCR1 = (uint16_t)((TIM21->ARR + 1) * pow2_24(map(((double)timeNow / timeWakeUp),
 8002592:	f7fd ff2f 	bl	80003f4 <__aeabi_d2uiz>
    return (uint16_t)(((x - in_min) * (out_max - out_min)) / (in_max - in_min) + out_min);
 8002596:	b284      	uxth	r4, r0
            TIM21->CCR1 = (uint16_t)((TIM21->ARR + 1) * pow2_24(map(((double)timeNow / timeWakeUp),
 8002598:	4648      	mov	r0, r9
 800259a:	f7ff fdd1 	bl	8002140 <__aeabi_ui2d>
 800259e:	0032      	movs	r2, r6
 80025a0:	003b      	movs	r3, r7
 80025a2:	f7fe fb5b 	bl	8000c5c <__aeabi_ddiv>
 80025a6:	f7fd ff25 	bl	80003f4 <__aeabi_d2uiz>
    return (uint16_t)(((x - in_min) * (out_max - out_min)) / (in_max - in_min) + out_min);
 80025aa:	4653      	mov	r3, sl
 80025ac:	b280      	uxth	r0, r0
 80025ae:	1b19      	subs	r1, r3, r4
 80025b0:	1b00      	subs	r0, r0, r4
 80025b2:	f7fd fe33 	bl	800021c <__divsi3>
            TIM21->CCR1 = (uint16_t)((TIM21->ARR + 1) * pow2_24(map(((double)timeNow / timeWakeUp),
 80025b6:	b280      	uxth	r0, r0
 80025b8:	f7ff fdc2 	bl	8002140 <__aeabi_ui2d>
    } u = {1000000 * b};
 80025bc:	2200      	movs	r2, #0
 80025be:	4b24      	ldr	r3, [pc, #144]	@ (8002650 <pwmFP7103.part.0+0x1cc>)
            TIM21->CCR1 = (uint16_t)((TIM21->ARR + 1) * pow2_24(map(((double)timeNow / timeWakeUp),
 80025c0:	0004      	movs	r4, r0
 80025c2:	000d      	movs	r5, r1
    } u = {1000000 * b};
 80025c4:	f7fe fe62 	bl	800128c <__aeabi_dmul>
    u.i = (long long)(2.24 * u.i - 5712498484330472700L);
 80025c8:	f7fd ff6c 	bl	80004a4 <__aeabi_l2d>
 80025cc:	4a21      	ldr	r2, [pc, #132]	@ (8002654 <pwmFP7103.part.0+0x1d0>)
 80025ce:	4b22      	ldr	r3, [pc, #136]	@ (8002658 <pwmFP7103.part.0+0x1d4>)
 80025d0:	f7fe fe5c 	bl	800128c <__aeabi_dmul>
 80025d4:	4a21      	ldr	r2, [pc, #132]	@ (800265c <pwmFP7103.part.0+0x1d8>)
 80025d6:	4b22      	ldr	r3, [pc, #136]	@ (8002660 <pwmFP7103.part.0+0x1dc>)
 80025d8:	f7ff f93e 	bl	8001858 <__aeabi_dsub>
 80025dc:	f7fd ff28 	bl	8000430 <__aeabi_d2lz>
    return 3.64182e-14 * u.d + 3.68723e-8 * b + 3.97089e-13;
 80025e0:	4a20      	ldr	r2, [pc, #128]	@ (8002664 <pwmFP7103.part.0+0x1e0>)
 80025e2:	4b21      	ldr	r3, [pc, #132]	@ (8002668 <pwmFP7103.part.0+0x1e4>)
 80025e4:	f7fe fe52 	bl	800128c <__aeabi_dmul>
 80025e8:	4a20      	ldr	r2, [pc, #128]	@ (800266c <pwmFP7103.part.0+0x1e8>)
 80025ea:	0006      	movs	r6, r0
 80025ec:	000f      	movs	r7, r1
 80025ee:	0020      	movs	r0, r4
 80025f0:	0029      	movs	r1, r5
 80025f2:	4b1f      	ldr	r3, [pc, #124]	@ (8002670 <pwmFP7103.part.0+0x1ec>)
 80025f4:	f7fe fe4a 	bl	800128c <__aeabi_dmul>
 80025f8:	0002      	movs	r2, r0
 80025fa:	000b      	movs	r3, r1
 80025fc:	0030      	movs	r0, r6
 80025fe:	0039      	movs	r1, r7
 8002600:	f7fd ff66 	bl	80004d0 <__aeabi_dadd>
 8002604:	4a1b      	ldr	r2, [pc, #108]	@ (8002674 <pwmFP7103.part.0+0x1f0>)
 8002606:	4b1c      	ldr	r3, [pc, #112]	@ (8002678 <pwmFP7103.part.0+0x1f4>)
 8002608:	f7fd ff62 	bl	80004d0 <__aeabi_dadd>
            TIM21->CCR1 = (uint16_t)((TIM21->ARR + 1) * pow2_24(map(((double)timeNow / timeWakeUp),
 800260c:	465b      	mov	r3, fp
    return 3.64182e-14 * u.d + 3.68723e-8 * b + 3.97089e-13;
 800260e:	0004      	movs	r4, r0
            TIM21->CCR1 = (uint16_t)((TIM21->ARR + 1) * pow2_24(map(((double)timeNow / timeWakeUp),
 8002610:	1c58      	adds	r0, r3, #1
    return 3.64182e-14 * u.d + 3.68723e-8 * b + 3.97089e-13;
 8002612:	000d      	movs	r5, r1
            TIM21->CCR1 = (uint16_t)((TIM21->ARR + 1) * pow2_24(map(((double)timeNow / timeWakeUp),
 8002614:	f7ff fd94 	bl	8002140 <__aeabi_ui2d>
 8002618:	000b      	movs	r3, r1
 800261a:	0002      	movs	r2, r0
 800261c:	0029      	movs	r1, r5
 800261e:	0020      	movs	r0, r4
 8002620:	f7fe fe34 	bl	800128c <__aeabi_dmul>
 8002624:	f7fd fee6 	bl	80003f4 <__aeabi_d2uiz>
 8002628:	4643      	mov	r3, r8
 800262a:	b280      	uxth	r0, r0
 800262c:	6358      	str	r0, [r3, #52]	@ 0x34
        if (!(menu[14].value * 60 >= (timeWakeUp - timeNow)) && (flagDecrementButtonLong || flagIncrementButtonLong))
 800262e:	e78e      	b.n	800254e <pwmFP7103.part.0+0xca>
 8002630:	20000000 	.word	0x20000000
 8002634:	200001b0 	.word	0x200001b0
 8002638:	40002800 	.word	0x40002800
 800263c:	200001ac 	.word	0x200001ac
 8002640:	200001c2 	.word	0x200001c2
 8002644:	200001c3 	.word	0x200001c3
 8002648:	50000800 	.word	0x50000800
 800264c:	40010800 	.word	0x40010800
 8002650:	412e8480 	.word	0x412e8480
 8002654:	1eb851ec 	.word	0x1eb851ec
 8002658:	4001eb85 	.word	0x4001eb85
 800265c:	c6be9e69 	.word	0xc6be9e69
 8002660:	43d3d1b7 	.word	0x43d3d1b7
 8002664:	6e17c76b 	.word	0x6e17c76b
 8002668:	3d24806a 	.word	0x3d24806a
 800266c:	b914a14d 	.word	0xb914a14d
 8002670:	3e63cbb0 	.word	0x3e63cbb0
 8002674:	ca143d06 	.word	0xca143d06
 8002678:	3d5bf151 	.word	0x3d5bf151

0800267c <CMSIS_FullInit>:
    CLEAR_BIT(FLASH->ACR, FLASH_ACR_DISAB_BUF); //   ,   
 800267c:	2120      	movs	r1, #32
    NVIC->IP[_IP_IDX(IRQn)]  = ((uint32_t)(NVIC->IP[_IP_IDX(IRQn)]  & ~(0xFFUL << _BIT_SHIFT(IRQn))) |
       (((priority << (8U - __NVIC_PRIO_BITS)) & (uint32_t)0xFFUL) << _BIT_SHIFT(IRQn)));
  }
  else
  {
    SCB->SHP[_SHP_IDX(IRQn)] = ((uint32_t)(SCB->SHP[_SHP_IDX(IRQn)] & ~(0xFFUL << _BIT_SHIFT(IRQn))) |
 800267e:	20c0      	movs	r0, #192	@ 0xc0
 8002680:	4b12      	ldr	r3, [pc, #72]	@ (80026cc <CMSIS_FullInit+0x50>)
 8002682:	0600      	lsls	r0, r0, #24
 8002684:	681a      	ldr	r2, [r3, #0]
 8002686:	438a      	bics	r2, r1
 8002688:	601a      	str	r2, [r3, #0]
    SET_BIT(FLASH->ACR, FLASH_ACR_PRE_READ);    //   ,   
 800268a:	681a      	ldr	r2, [r3, #0]
 800268c:	3120      	adds	r1, #32
 800268e:	430a      	orrs	r2, r1
 8002690:	601a      	str	r2, [r3, #0]
    SET_BIT(FLASH->ACR, FLASH_ACR_PRFTEN);      //   ,   
 8002692:	681a      	ldr	r2, [r3, #0]
 8002694:	393e      	subs	r1, #62	@ 0x3e
 8002696:	430a      	orrs	r2, r1
 8002698:	601a      	str	r2, [r3, #0]
    SET_BIT(FLASH->ACR, FLASH_ACR_LATENCY);     //     -'
 800269a:	681a      	ldr	r2, [r3, #0]
 800269c:	3901      	subs	r1, #1
 800269e:	430a      	orrs	r2, r1
 80026a0:	601a      	str	r2, [r3, #0]
    CLEAR_BIT(SysTick->CTRL, SysTick_CTRL_ENABLE_Msk);               /*   SysTick */
 80026a2:	4b0b      	ldr	r3, [pc, #44]	@ (80026d0 <CMSIS_FullInit+0x54>)
 80026a4:	681a      	ldr	r2, [r3, #0]
 80026a6:	438a      	bics	r2, r1
 80026a8:	601a      	str	r2, [r3, #0]
    SysTick->LOAD = (uint32_t)(ticks - 1UL);                         /*    */
 80026aa:	4a0a      	ldr	r2, [pc, #40]	@ (80026d4 <CMSIS_FullInit+0x58>)
 80026ac:	490a      	ldr	r1, [pc, #40]	@ (80026d8 <CMSIS_FullInit+0x5c>)
 80026ae:	605a      	str	r2, [r3, #4]
 80026b0:	6a0a      	ldr	r2, [r1, #32]
 80026b2:	0212      	lsls	r2, r2, #8
 80026b4:	0a12      	lsrs	r2, r2, #8
 80026b6:	4302      	orrs	r2, r0
 80026b8:	620a      	str	r2, [r1, #32]
    SysTick->VAL = 0UL;                                              /*    SysTick */
 80026ba:	2200      	movs	r2, #0
 80026bc:	609a      	str	r2, [r3, #8]
    SysTick->CTRL = SysTick_CTRL_CLKSOURCE_Msk |
 80026be:	3207      	adds	r2, #7
 80026c0:	601a      	str	r2, [r3, #0]
 80026c2:	6a0b      	ldr	r3, [r1, #32]
 80026c4:	021b      	lsls	r3, r3, #8
 80026c6:	0a1b      	lsrs	r3, r3, #8
 80026c8:	620b      	str	r3, [r1, #32]
}
 80026ca:	4770      	bx	lr
 80026cc:	40022000 	.word	0x40022000
 80026d0:	e000e010 	.word	0xe000e010
 80026d4:	00007cff 	.word	0x00007cff
 80026d8:	e000ed00 	.word	0xe000ed00

080026dc <SystemClock_Config>:
    MODIFY_REG(PWR->CR, PWR_CR_VOS_Msk, 0b01 << PWR_CR_VOS_Pos); //  PWR CR   
 80026dc:	4935      	ldr	r1, [pc, #212]	@ (80027b4 <SystemClock_Config+0xd8>)
 80026de:	4b36      	ldr	r3, [pc, #216]	@ (80027b8 <SystemClock_Config+0xdc>)
 80026e0:	680a      	ldr	r2, [r1, #0]
 80026e2:	401a      	ands	r2, r3
 80026e4:	2380      	movs	r3, #128	@ 0x80
 80026e6:	011b      	lsls	r3, r3, #4
 80026e8:	4313      	orrs	r3, r2
 80026ea:	600b      	str	r3, [r1, #0]
    CLEAR_BIT(RCC->CR, RCC_CR_HSIDIVEN); //  HSI16DIV
 80026ec:	2108      	movs	r1, #8
 80026ee:	4b33      	ldr	r3, [pc, #204]	@ (80027bc <SystemClock_Config+0xe0>)
 80026f0:	681a      	ldr	r2, [r3, #0]
 80026f2:	438a      	bics	r2, r1
 80026f4:	601a      	str	r2, [r3, #0]
    CLEAR_BIT(RCC->CR, RCC_CR_MSION); //  MSI
 80026f6:	681a      	ldr	r2, [r3, #0]
 80026f8:	4931      	ldr	r1, [pc, #196]	@ (80027c0 <SystemClock_Config+0xe4>)
 80026fa:	400a      	ands	r2, r1
 80026fc:	601a      	str	r2, [r3, #0]
    if ((RCC->CFGR & RCC_CFGR_SWS_Msk) != RCC_CFGR_SWS_HSI)
 80026fe:	220c      	movs	r2, #12
 8002700:	68d9      	ldr	r1, [r3, #12]
 8002702:	400a      	ands	r2, r1
 8002704:	2a04      	cmp	r2, #4
 8002706:	d013      	beq.n	8002730 <SystemClock_Config+0x54>
        SET_BIT(RCC->CR, RCC_CR_HSION); //  HSI16
 8002708:	2101      	movs	r1, #1
 800270a:	681a      	ldr	r2, [r3, #0]
 800270c:	430a      	orrs	r2, r1
 800270e:	601a      	str	r2, [r3, #0]
        while (!(RCC->CR & RCC_CR_HSIRDY))
 8002710:	3103      	adds	r1, #3
 8002712:	681a      	ldr	r2, [r3, #0]
 8002714:	4211      	tst	r1, r2
 8002716:	d0fc      	beq.n	8002712 <SystemClock_Config+0x36>
        MODIFY_REG(RCC->CFGR, RCC_CFGR_SW_Msk, RCC_CFGR_SW_HSI); //      HSI16
 8002718:	2103      	movs	r1, #3
 800271a:	68da      	ldr	r2, [r3, #12]
 800271c:	438a      	bics	r2, r1
 800271e:	3902      	subs	r1, #2
 8002720:	430a      	orrs	r2, r1
 8002722:	60da      	str	r2, [r3, #12]
        while ((RCC->CFGR & RCC_CFGR_SWS_Msk) != RCC_CFGR_SWS_HSI)
 8002724:	220c      	movs	r2, #12
 8002726:	4925      	ldr	r1, [pc, #148]	@ (80027bc <SystemClock_Config+0xe0>)
 8002728:	68cb      	ldr	r3, [r1, #12]
 800272a:	4013      	ands	r3, r2
 800272c:	2b04      	cmp	r3, #4
 800272e:	d1fb      	bne.n	8002728 <SystemClock_Config+0x4c>
    MODIFY_REG(RCC->CFGR, RCC_CFGR_MCOPRE_Msk, 0b000 << RCC_CFGR_MCOPRE_Pos); //  MCO prescaler
 8002730:	4b22      	ldr	r3, [pc, #136]	@ (80027bc <SystemClock_Config+0xe0>)
 8002732:	4924      	ldr	r1, [pc, #144]	@ (80027c4 <SystemClock_Config+0xe8>)
 8002734:	68da      	ldr	r2, [r3, #12]
 8002736:	400a      	ands	r2, r1
 8002738:	60da      	str	r2, [r3, #12]
    MODIFY_REG(RCC->CFGR, RCC_CFGR_MCOSEL_Msk, 0b000 << RCC_CFGR_MCOSEL_Pos); //     MCO
 800273a:	68da      	ldr	r2, [r3, #12]
 800273c:	4922      	ldr	r1, [pc, #136]	@ (80027c8 <SystemClock_Config+0xec>)
 800273e:	400a      	ands	r2, r1
 8002740:	60da      	str	r2, [r3, #12]
    MODIFY_REG(RCC->CFGR, RCC_CFGR_PLLDIV_Msk, 0b01 << RCC_CFGR_PLLDIV_Pos);   //  PLL divisor
 8002742:	68d9      	ldr	r1, [r3, #12]
 8002744:	4a21      	ldr	r2, [pc, #132]	@ (80027cc <SystemClock_Config+0xf0>)
 8002746:	4011      	ands	r1, r2
 8002748:	2280      	movs	r2, #128	@ 0x80
 800274a:	03d2      	lsls	r2, r2, #15
 800274c:	430a      	orrs	r2, r1
 800274e:	60da      	str	r2, [r3, #12]
    MODIFY_REG(RCC->CFGR, RCC_CFGR_PLLMUL_Msk, 0b0001 << RCC_CFGR_PLLMUL_Pos); //   PLL
 8002750:	68d9      	ldr	r1, [r3, #12]
 8002752:	4a1f      	ldr	r2, [pc, #124]	@ (80027d0 <SystemClock_Config+0xf4>)
 8002754:	4011      	ands	r1, r2
 8002756:	2280      	movs	r2, #128	@ 0x80
 8002758:	02d2      	lsls	r2, r2, #11
 800275a:	430a      	orrs	r2, r1
 800275c:	60da      	str	r2, [r3, #12]
    MODIFY_REG(RCC->CFGR, RCC_CFGR_PLLSRC_Msk, 0b0 << RCC_CFGR_PLLSRC_Pos);    //     PLL
 800275e:	68da      	ldr	r2, [r3, #12]
 8002760:	491c      	ldr	r1, [pc, #112]	@ (80027d4 <SystemClock_Config+0xf8>)
 8002762:	400a      	ands	r2, r1
 8002764:	60da      	str	r2, [r3, #12]
    SET_BIT(RCC->CFGR, RCC_CFGR_STOPWUCK); //     MSI  STOP 
 8002766:	2280      	movs	r2, #128	@ 0x80
 8002768:	68d9      	ldr	r1, [r3, #12]
 800276a:	0212      	lsls	r2, r2, #8
 800276c:	430a      	orrs	r2, r1
 800276e:	60da      	str	r2, [r3, #12]
    MODIFY_REG(RCC->CFGR, RCC_CFGR_PPRE2_Msk, 0b000 << RCC_CFGR_PPRE2_Pos); //    APB2
 8002770:	68da      	ldr	r2, [r3, #12]
 8002772:	4919      	ldr	r1, [pc, #100]	@ (80027d8 <SystemClock_Config+0xfc>)
 8002774:	400a      	ands	r2, r1
 8002776:	60da      	str	r2, [r3, #12]
    MODIFY_REG(RCC->CFGR, RCC_CFGR_PPRE1_Msk, 0b000 << RCC_CFGR_PPRE1_Pos); //    APB1
 8002778:	68da      	ldr	r2, [r3, #12]
 800277a:	4918      	ldr	r1, [pc, #96]	@ (80027dc <SystemClock_Config+0x100>)
 800277c:	400a      	ands	r2, r1
    MODIFY_REG(RCC->CFGR, RCC_CFGR_HPRE_Msk, 0b0000 << RCC_CFGR_HPRE_Pos);  //    AHB
 800277e:	21f0      	movs	r1, #240	@ 0xf0
    MODIFY_REG(RCC->CFGR, RCC_CFGR_PPRE1_Msk, 0b000 << RCC_CFGR_PPRE1_Pos); //    APB1
 8002780:	60da      	str	r2, [r3, #12]
    MODIFY_REG(RCC->CFGR, RCC_CFGR_HPRE_Msk, 0b0000 << RCC_CFGR_HPRE_Pos);  //    AHB
 8002782:	68da      	ldr	r2, [r3, #12]
 8002784:	438a      	bics	r2, r1
 8002786:	60da      	str	r2, [r3, #12]
    SET_BIT(RCC->CR, RCC_CR_PLLON); //  PLL
 8002788:	2280      	movs	r2, #128	@ 0x80
 800278a:	6819      	ldr	r1, [r3, #0]
 800278c:	0452      	lsls	r2, r2, #17
 800278e:	430a      	orrs	r2, r1
    while (!(RCC->CR & RCC_CR_PLLRDY))
 8002790:	2180      	movs	r1, #128	@ 0x80
    SET_BIT(RCC->CR, RCC_CR_PLLON); //  PLL
 8002792:	601a      	str	r2, [r3, #0]
    while (!(RCC->CR & RCC_CR_PLLRDY))
 8002794:	0489      	lsls	r1, r1, #18
 8002796:	681a      	ldr	r2, [r3, #0]
 8002798:	420a      	tst	r2, r1
 800279a:	d0fc      	beq.n	8002796 <SystemClock_Config+0xba>
    MODIFY_REG(RCC->CFGR, RCC_CFGR_SW_Msk, RCC_CFGR_SW_PLL); //     PLL
 800279c:	2103      	movs	r1, #3
 800279e:	68da      	ldr	r2, [r3, #12]
 80027a0:	430a      	orrs	r2, r1
 80027a2:	60da      	str	r2, [r3, #12]
    while ((RCC->CFGR & RCC_CFGR_SWS_Msk) != RCC_CFGR_SWS_PLL)
 80027a4:	220c      	movs	r2, #12
 80027a6:	4905      	ldr	r1, [pc, #20]	@ (80027bc <SystemClock_Config+0xe0>)
 80027a8:	68cb      	ldr	r3, [r1, #12]
 80027aa:	4013      	ands	r3, r2
 80027ac:	2b0c      	cmp	r3, #12
 80027ae:	d1fb      	bne.n	80027a8 <SystemClock_Config+0xcc>
}
 80027b0:	4770      	bx	lr
 80027b2:	46c0      	nop			@ (mov r8, r8)
 80027b4:	40007000 	.word	0x40007000
 80027b8:	ffffe7ff 	.word	0xffffe7ff
 80027bc:	40021000 	.word	0x40021000
 80027c0:	fffffeff 	.word	0xfffffeff
 80027c4:	8fffffff 	.word	0x8fffffff
 80027c8:	f0ffffff 	.word	0xf0ffffff
 80027cc:	ff3fffff 	.word	0xff3fffff
 80027d0:	ffc3ffff 	.word	0xffc3ffff
 80027d4:	fffeffff 	.word	0xfffeffff
 80027d8:	ffffc7ff 	.word	0xffffc7ff
 80027dc:	fffff8ff 	.word	0xfffff8ff

080027e0 <RTC_Init>:
    SET_BIT(RCC->APB1ENR, RCC_APB1ENR_PWREN); //    
 80027e0:	2280      	movs	r2, #128	@ 0x80
 80027e2:	4b25      	ldr	r3, [pc, #148]	@ (8002878 <RTC_Init+0x98>)
 80027e4:	0552      	lsls	r2, r2, #21
 80027e6:	6b99      	ldr	r1, [r3, #56]	@ 0x38
    SET_BIT(PWR->CR, PWR_CR_DBP);             //     
 80027e8:	4824      	ldr	r0, [pc, #144]	@ (800287c <RTC_Init+0x9c>)
    SET_BIT(RCC->APB1ENR, RCC_APB1ENR_PWREN); //    
 80027ea:	430a      	orrs	r2, r1
 80027ec:	639a      	str	r2, [r3, #56]	@ 0x38
    SET_BIT(PWR->CR, PWR_CR_DBP);             //     
 80027ee:	2280      	movs	r2, #128	@ 0x80
 80027f0:	6801      	ldr	r1, [r0, #0]
 80027f2:	0052      	lsls	r2, r2, #1
 80027f4:	4311      	orrs	r1, r2
 80027f6:	6001      	str	r1, [r0, #0]
    CLEAR_BIT(RCC->CSR, RCC_CSR_LSEON); // ,  LSE 
 80027f8:	6d19      	ldr	r1, [r3, #80]	@ 0x50
 80027fa:	4821      	ldr	r0, [pc, #132]	@ (8002880 <RTC_Init+0xa0>)
 80027fc:	4001      	ands	r1, r0
 80027fe:	6519      	str	r1, [r3, #80]	@ 0x50
    SET_BIT(RCC->CSR, RCC_CSR_LSEBYP);  //    LSE ( )
 8002800:	2180      	movs	r1, #128	@ 0x80
 8002802:	6d18      	ldr	r0, [r3, #80]	@ 0x50
 8002804:	00c9      	lsls	r1, r1, #3
 8002806:	4301      	orrs	r1, r0
 8002808:	6519      	str	r1, [r3, #80]	@ 0x50
    SET_BIT(RCC->CSR, RCC_CSR_LSEON);   //   LSE
 800280a:	6d19      	ldr	r1, [r3, #80]	@ 0x50
 800280c:	430a      	orrs	r2, r1
    while (!(READ_BIT(RCC->CSR, RCC_CSR_LSERDY)))
 800280e:	2180      	movs	r1, #128	@ 0x80
    SET_BIT(RCC->CSR, RCC_CSR_LSEON);   //   LSE
 8002810:	651a      	str	r2, [r3, #80]	@ 0x50
    while (!(READ_BIT(RCC->CSR, RCC_CSR_LSERDY)))
 8002812:	0089      	lsls	r1, r1, #2
 8002814:	6d1a      	ldr	r2, [r3, #80]	@ 0x50
 8002816:	420a      	tst	r2, r1
 8002818:	d0fc      	beq.n	8002814 <RTC_Init+0x34>
    MODIFY_REG(RCC->CSR, RCC_CSR_RTCSEL_Msk, (0b01 << RCC_CSR_RTCSEL_Pos)); //  LSE     RTC
 800281a:	6d19      	ldr	r1, [r3, #80]	@ 0x50
 800281c:	4a19      	ldr	r2, [pc, #100]	@ (8002884 <RTC_Init+0xa4>)
 800281e:	4011      	ands	r1, r2
 8002820:	2280      	movs	r2, #128	@ 0x80
 8002822:	0252      	lsls	r2, r2, #9
 8002824:	430a      	orrs	r2, r1
 8002826:	651a      	str	r2, [r3, #80]	@ 0x50
    SET_BIT(RCC->CSR, RCC_CSR_RTCEN);                                       //  RTC
 8002828:	2280      	movs	r2, #128	@ 0x80
 800282a:	6d19      	ldr	r1, [r3, #80]	@ 0x50
 800282c:	02d2      	lsls	r2, r2, #11
 800282e:	430a      	orrs	r2, r1
 8002830:	651a      	str	r2, [r3, #80]	@ 0x50
    RTC->WPR = 0xCA; //    1
 8002832:	22ca      	movs	r2, #202	@ 0xca
    SET_BIT(RTC->ISR, RTC_ISR_INIT); //   
 8002834:	2180      	movs	r1, #128	@ 0x80
    RTC->WPR = 0xCA; //    1
 8002836:	4b14      	ldr	r3, [pc, #80]	@ (8002888 <RTC_Init+0xa8>)
 8002838:	625a      	str	r2, [r3, #36]	@ 0x24
    RTC->WPR = 0x53; //    2
 800283a:	3a77      	subs	r2, #119	@ 0x77
 800283c:	625a      	str	r2, [r3, #36]	@ 0x24
    SET_BIT(RTC->ISR, RTC_ISR_INIT); //   
 800283e:	68da      	ldr	r2, [r3, #12]
 8002840:	430a      	orrs	r2, r1
 8002842:	60da      	str	r2, [r3, #12]
    while (!(READ_BIT(RTC->ISR, RTC_ISR_INITF)))
 8002844:	3940      	subs	r1, #64	@ 0x40
 8002846:	68da      	ldr	r2, [r3, #12]
 8002848:	4211      	tst	r1, r2
 800284a:	d0fc      	beq.n	8002846 <RTC_Init+0x66>
    MODIFY_REG(RTC->TR,
 800284c:	6819      	ldr	r1, [r3, #0]
 800284e:	4a0f      	ldr	r2, [pc, #60]	@ (800288c <RTC_Init+0xac>)
 8002850:	4011      	ands	r1, r2
 8002852:	4a0f      	ldr	r2, [pc, #60]	@ (8002890 <RTC_Init+0xb0>)
 8002854:	430a      	orrs	r2, r1
 8002856:	601a      	str	r2, [r3, #0]
    MODIFY_REG(RTC->DR,
 8002858:	6859      	ldr	r1, [r3, #4]
 800285a:	4a0e      	ldr	r2, [pc, #56]	@ (8002894 <RTC_Init+0xb4>)
 800285c:	4011      	ands	r1, r2
 800285e:	4a0e      	ldr	r2, [pc, #56]	@ (8002898 <RTC_Init+0xb8>)
 8002860:	430a      	orrs	r2, r1
    CLEAR_BIT(RTC->ISR, RTC_ISR_INIT); //   
 8002862:	2180      	movs	r1, #128	@ 0x80
    MODIFY_REG(RTC->DR,
 8002864:	605a      	str	r2, [r3, #4]
    CLEAR_BIT(RTC->ISR, RTC_ISR_INIT); //   
 8002866:	68da      	ldr	r2, [r3, #12]
 8002868:	438a      	bics	r2, r1
 800286a:	60da      	str	r2, [r3, #12]
    RTC->WPR = 0xFE; //    1
 800286c:	22fe      	movs	r2, #254	@ 0xfe
 800286e:	625a      	str	r2, [r3, #36]	@ 0x24
    RTC->WPR = 0x64; //    2
 8002870:	3a9a      	subs	r2, #154	@ 0x9a
 8002872:	625a      	str	r2, [r3, #36]	@ 0x24
}
 8002874:	4770      	bx	lr
 8002876:	46c0      	nop			@ (mov r8, r8)
 8002878:	40021000 	.word	0x40021000
 800287c:	40007000 	.word	0x40007000
 8002880:	fffffeff 	.word	0xfffffeff
 8002884:	fffcffff 	.word	0xfffcffff
 8002888:	40002800 	.word	0x40002800
 800288c:	ffc08080 	.word	0xffc08080
 8002890:	00173600 	.word	0x00173600
 8002894:	ff0000c0 	.word	0xff0000c0
 8002898:	00242401 	.word	0x00242401

0800289c <TIM21_Init>:
    RCC->IOPENR |= RCC_IOPENR_IOPBEN;
 800289c:	2002      	movs	r0, #2
{
 800289e:	b5f0      	push	{r4, r5, r6, r7, lr}
 80028a0:	46c6      	mov	lr, r8
    RCC->IOPENR |= RCC_IOPENR_IOPBEN;
 80028a2:	4a35      	ldr	r2, [pc, #212]	@ (8002978 <TIM21_Init+0xdc>)
{
 80028a4:	b500      	push	{lr}
    RCC->IOPENR |= RCC_IOPENR_IOPBEN;
 80028a6:	6ad3      	ldr	r3, [r2, #44]	@ 0x2c
    CONFIGURE_GPIO(GPIOB, 5, 0b10, 0, 0b11); //  mainLED
 80028a8:	4934      	ldr	r1, [pc, #208]	@ (800297c <TIM21_Init+0xe0>)
    RCC->IOPENR |= RCC_IOPENR_IOPBEN;
 80028aa:	4303      	orrs	r3, r0
 80028ac:	62d3      	str	r3, [r2, #44]	@ 0x2c
    CONFIGURE_GPIO(GPIOB, 5, 0b10, 0, 0b11); //  mainLED
 80028ae:	4b34      	ldr	r3, [pc, #208]	@ (8002980 <TIM21_Init+0xe4>)
    CLEAR_BIT(TIM21->CR1, TIM_CR1_OPM);                               // One pulse mode off (    )
 80028b0:	2708      	movs	r7, #8
    CONFIGURE_GPIO(GPIOB, 5, 0b10, 0, 0b11); //  mainLED
 80028b2:	681c      	ldr	r4, [r3, #0]
    CLEAR_BIT(TIM21->CR1, TIM_CR1_DIR);                               //  
 80028b4:	2510      	movs	r5, #16
    CONFIGURE_GPIO(GPIOB, 5, 0b10, 0, 0b11); //  mainLED
 80028b6:	400c      	ands	r4, r1
 80028b8:	2180      	movs	r1, #128	@ 0x80
 80028ba:	0109      	lsls	r1, r1, #4
 80028bc:	4321      	orrs	r1, r4
 80028be:	2420      	movs	r4, #32
 80028c0:	6019      	str	r1, [r3, #0]
 80028c2:	6859      	ldr	r1, [r3, #4]
    MODIFY_REG(TIM21->CR1, TIM_CR1_CMS_Msk, 0b00 << TIM_CR1_CMS_Pos); //   
 80028c4:	2660      	movs	r6, #96	@ 0x60
    CONFIGURE_GPIO(GPIOB, 5, 0b10, 0, 0b11); //  mainLED
 80028c6:	43a1      	bics	r1, r4
 80028c8:	6059      	str	r1, [r3, #4]
 80028ca:	21c0      	movs	r1, #192	@ 0xc0
 80028cc:	689c      	ldr	r4, [r3, #8]
 80028ce:	0109      	lsls	r1, r1, #4
 80028d0:	4321      	orrs	r1, r4
 80028d2:	6099      	str	r1, [r3, #8]
    MODIFY_REG(GPIOB->AFR[0], GPIO_AFRL_AFSEL5_Msk, 0b0101 << GPIO_AFRL_AFSEL5_Pos);
 80028d4:	6a1c      	ldr	r4, [r3, #32]
 80028d6:	492b      	ldr	r1, [pc, #172]	@ (8002984 <TIM21_Init+0xe8>)
 80028d8:	400c      	ands	r4, r1
 80028da:	21a0      	movs	r1, #160	@ 0xa0
 80028dc:	03c9      	lsls	r1, r1, #15
 80028de:	4321      	orrs	r1, r4
    RCC->APB2ENR |= RCC_APB2ENR_TIM21EN;
 80028e0:	2404      	movs	r4, #4
    MODIFY_REG(GPIOB->AFR[0], GPIO_AFRL_AFSEL5_Msk, 0b0101 << GPIO_AFRL_AFSEL5_Pos);
 80028e2:	6219      	str	r1, [r3, #32]
    CLEAR_BIT(TIM21->CR1, TIM_CR1_CEN); //   TIM21
 80028e4:	2101      	movs	r1, #1
    RCC->APB2ENR |= RCC_APB2ENR_TIM21EN;
 80028e6:	6b53      	ldr	r3, [r2, #52]	@ 0x34
 80028e8:	4323      	orrs	r3, r4
 80028ea:	6353      	str	r3, [r2, #52]	@ 0x34
    CLEAR_BIT(TIM21->CR1, TIM_CR1_CEN); //   TIM21
 80028ec:	4b26      	ldr	r3, [pc, #152]	@ (8002988 <TIM21_Init+0xec>)
 80028ee:	681a      	ldr	r2, [r3, #0]
 80028f0:	438a      	bics	r2, r1
 80028f2:	601a      	str	r2, [r3, #0]
    CLEAR_BIT(TIM21->CR1, TIM_CR1_UDIS);                              //   Update
 80028f4:	681a      	ldr	r2, [r3, #0]
 80028f6:	4382      	bics	r2, r0
 80028f8:	601a      	str	r2, [r3, #0]
    CLEAR_BIT(TIM21->CR1, TIM_CR1_URS);                               //  
 80028fa:	681a      	ldr	r2, [r3, #0]
 80028fc:	43a2      	bics	r2, r4
 80028fe:	601a      	str	r2, [r3, #0]
    CLEAR_BIT(TIM21->CR1, TIM_CR1_OPM);                               // One pulse mode off (    )
 8002900:	681a      	ldr	r2, [r3, #0]
 8002902:	43ba      	bics	r2, r7
 8002904:	601a      	str	r2, [r3, #0]
    CLEAR_BIT(TIM21->CR1, TIM_CR1_DIR);                               //  
 8002906:	681a      	ldr	r2, [r3, #0]
 8002908:	43aa      	bics	r2, r5
 800290a:	601a      	str	r2, [r3, #0]
    MODIFY_REG(TIM21->CR1, TIM_CR1_CMS_Msk, 0b00 << TIM_CR1_CMS_Pos); //   
 800290c:	681a      	ldr	r2, [r3, #0]
    SET_BIT(TIM21->CR1, TIM_CR1_ARPE);                                //   
 800290e:	3570      	adds	r5, #112	@ 0x70
    MODIFY_REG(TIM21->CR1, TIM_CR1_CMS_Msk, 0b00 << TIM_CR1_CMS_Pos); //   
 8002910:	43b2      	bics	r2, r6
 8002912:	601a      	str	r2, [r3, #0]
    SET_BIT(TIM21->CR1, TIM_CR1_ARPE);                                //   
 8002914:	681a      	ldr	r2, [r3, #0]
 8002916:	46a8      	mov	r8, r5
 8002918:	432a      	orrs	r2, r5
 800291a:	601a      	str	r2, [r3, #0]
    MODIFY_REG(TIM21->CR1, TIM_CR1_CKD_Msk, 0b00 << TIM_CR1_CKD_Pos); //   
 800291c:	681a      	ldr	r2, [r3, #0]
 800291e:	4d1b      	ldr	r5, [pc, #108]	@ (800298c <TIM21_Init+0xf0>)
 8002920:	402a      	ands	r2, r5
 8002922:	601a      	str	r2, [r3, #0]
    SET_BIT(TIM21->DIER, TIM_DIER_UIE); //    
 8002924:	68da      	ldr	r2, [r3, #12]
    NVIC->ISER[0U] = (uint32_t)(1UL << (((uint32_t)IRQn) & 0x1FUL));
 8002926:	2580      	movs	r5, #128	@ 0x80
 8002928:	430a      	orrs	r2, r1
 800292a:	60da      	str	r2, [r3, #12]
    TIM21->PSC = 32 - 1;    //   32
 800292c:	221f      	movs	r2, #31
 800292e:	629a      	str	r2, [r3, #40]	@ 0x28
    TIM21->ARR = 10000 - 1; //    10000
 8002930:	4a17      	ldr	r2, [pc, #92]	@ (8002990 <TIM21_Init+0xf4>)
 8002932:	036d      	lsls	r5, r5, #13
 8002934:	62da      	str	r2, [r3, #44]	@ 0x2c
 8002936:	4a17      	ldr	r2, [pc, #92]	@ (8002994 <TIM21_Init+0xf8>)
 8002938:	6015      	str	r5, [r2, #0]
    MODIFY_REG(TIM21->CCMR1, TIM_CCMR1_CC1S_Msk, 0b00 << TIM_CCMR1_CC1S_Pos);  //  CC1   
 800293a:	2503      	movs	r5, #3
 800293c:	699a      	ldr	r2, [r3, #24]
 800293e:	43aa      	bics	r2, r5
 8002940:	619a      	str	r2, [r3, #24]
    CLEAR_BIT(TIM21->CCMR1, TIM_CCMR1_OC1FE);                                  //   
 8002942:	699a      	ldr	r2, [r3, #24]
 8002944:	43a2      	bics	r2, r4
 8002946:	619a      	str	r2, [r3, #24]
    SET_BIT(TIM21->CCMR1, TIM_CCMR1_OC1PE);                                    //   
 8002948:	699a      	ldr	r2, [r3, #24]
    MODIFY_REG(TIM21->CCMR1, TIM_CCMR1_OC1M_Msk, 0b110 << TIM_CCMR1_OC1M_Pos); //  PWM 1
 800294a:	346c      	adds	r4, #108	@ 0x6c
    SET_BIT(TIM21->CCMR1, TIM_CCMR1_OC1PE);                                    //   
 800294c:	433a      	orrs	r2, r7
 800294e:	619a      	str	r2, [r3, #24]
    MODIFY_REG(TIM21->CCMR1, TIM_CCMR1_OC1M_Msk, 0b110 << TIM_CCMR1_OC1M_Pos); //  PWM 1
 8002950:	699a      	ldr	r2, [r3, #24]
 8002952:	43a2      	bics	r2, r4
    CLEAR_BIT(TIM21->CCMR1, TIM_CCMR1_OC1CE);                                  // OC1Ref     ETRF
 8002954:	4644      	mov	r4, r8
    MODIFY_REG(TIM21->CCMR1, TIM_CCMR1_OC1M_Msk, 0b110 << TIM_CCMR1_OC1M_Pos); //  PWM 1
 8002956:	4332      	orrs	r2, r6
 8002958:	619a      	str	r2, [r3, #24]
    CLEAR_BIT(TIM21->CCMR1, TIM_CCMR1_OC1CE);                                  // OC1Ref     ETRF
 800295a:	699a      	ldr	r2, [r3, #24]
 800295c:	43a2      	bics	r2, r4
 800295e:	619a      	str	r2, [r3, #24]
    SET_BIT(TIM21->CCER, TIM_CCER_CC1E); // OC1      
 8002960:	6a1a      	ldr	r2, [r3, #32]
 8002962:	430a      	orrs	r2, r1
 8002964:	621a      	str	r2, [r3, #32]
    SET_BIT(TIM21->CCER, TIM_CCER_CC1P); // OC1  
 8002966:	6a1a      	ldr	r2, [r3, #32]
 8002968:	4302      	orrs	r2, r0
 800296a:	621a      	str	r2, [r3, #32]
    CLEAR_BIT(TIM21->CR1, TIM_CR1_CEN); //   TIM21
 800296c:	681a      	ldr	r2, [r3, #0]
 800296e:	438a      	bics	r2, r1
 8002970:	601a      	str	r2, [r3, #0]
}
 8002972:	bc80      	pop	{r7}
 8002974:	46b8      	mov	r8, r7
 8002976:	bdf0      	pop	{r4, r5, r6, r7, pc}
 8002978:	40021000 	.word	0x40021000
 800297c:	fffff3ff 	.word	0xfffff3ff
 8002980:	50000400 	.word	0x50000400
 8002984:	ff0fffff 	.word	0xff0fffff
 8002988:	40010800 	.word	0x40010800
 800298c:	fffffcff 	.word	0xfffffcff
 8002990:	0000270f 	.word	0x0000270f
 8002994:	e000e100 	.word	0xe000e100

08002998 <GPIO_Init>:
    RCC->IOPENR |= RCC_IOPENR_IOPAEN | RCC_IOPENR_IOPBEN | RCC_IOPENR_IOPCEN;
 8002998:	2107      	movs	r1, #7
{
 800299a:	b5f0      	push	{r4, r5, r6, r7, lr}
 800299c:	4657      	mov	r7, sl
 800299e:	464e      	mov	r6, r9
 80029a0:	4645      	mov	r5, r8
 80029a2:	46de      	mov	lr, fp
    RCC->IOPENR |= RCC_IOPENR_IOPAEN | RCC_IOPENR_IOPBEN | RCC_IOPENR_IOPCEN;
 80029a4:	4aad      	ldr	r2, [pc, #692]	@ (8002c5c <GPIO_Init+0x2c4>)
{
 80029a6:	b5e0      	push	{r5, r6, r7, lr}
    RCC->IOPENR |= RCC_IOPENR_IOPAEN | RCC_IOPENR_IOPBEN | RCC_IOPENR_IOPCEN;
 80029a8:	6ad3      	ldr	r3, [r2, #44]	@ 0x2c
    CONFIGURE_GPIO(GPIOA, 7, 0b01, 0, 0b00);  //  LEDa
 80029aa:	48ad      	ldr	r0, [pc, #692]	@ (8002c60 <GPIO_Init+0x2c8>)
    RCC->IOPENR |= RCC_IOPENR_IOPAEN | RCC_IOPENR_IOPBEN | RCC_IOPENR_IOPCEN;
 80029ac:	430b      	orrs	r3, r1
 80029ae:	62d3      	str	r3, [r2, #44]	@ 0x2c
    CONFIGURE_GPIO(GPIOA, 7, 0b01, 0, 0b00);  //  LEDa
 80029b0:	23a0      	movs	r3, #160	@ 0xa0
 80029b2:	2280      	movs	r2, #128	@ 0x80
 80029b4:	05db      	lsls	r3, r3, #23
 80029b6:	6819      	ldr	r1, [r3, #0]
 80029b8:	01d2      	lsls	r2, r2, #7
 80029ba:	4001      	ands	r1, r0
 80029bc:	430a      	orrs	r2, r1
 80029be:	2180      	movs	r1, #128	@ 0x80
 80029c0:	601a      	str	r2, [r3, #0]
 80029c2:	685a      	ldr	r2, [r3, #4]
    CONFIGURE_GPIO(GPIOB, 1, 0b01, 0, 0b00);  //  LEDb
 80029c4:	240c      	movs	r4, #12
    CONFIGURE_GPIO(GPIOA, 7, 0b01, 0, 0b00);  //  LEDa
 80029c6:	438a      	bics	r2, r1
 80029c8:	605a      	str	r2, [r3, #4]
 80029ca:	689a      	ldr	r2, [r3, #8]
    CONFIGURE_GPIO(GPIOB, 1, 0b01, 0, 0b00);  //  LEDb
 80029cc:	2502      	movs	r5, #2
    CONFIGURE_GPIO(GPIOA, 7, 0b01, 0, 0b00);  //  LEDa
 80029ce:	4002      	ands	r2, r0
    CONFIGURE_GPIO(GPIOB, 1, 0b01, 0, 0b00);  //  LEDb
 80029d0:	2004      	movs	r0, #4
    CONFIGURE_GPIO(GPIOA, 7, 0b01, 0, 0b00);  //  LEDa
 80029d2:	609a      	str	r2, [r3, #8]
    CONFIGURE_GPIO(GPIOB, 1, 0b01, 0, 0b00);  //  LEDb
 80029d4:	4aa3      	ldr	r2, [pc, #652]	@ (8002c64 <GPIO_Init+0x2cc>)
    CONFIGURE_GPIO(GPIOA, 6, 0b01, 0, 0b00);  //  LEDc
 80029d6:	4ea4      	ldr	r6, [pc, #656]	@ (8002c68 <GPIO_Init+0x2d0>)
    CONFIGURE_GPIO(GPIOB, 1, 0b01, 0, 0b00);  //  LEDb
 80029d8:	6811      	ldr	r1, [r2, #0]
 80029da:	43a1      	bics	r1, r4
 80029dc:	4301      	orrs	r1, r0
 80029de:	6011      	str	r1, [r2, #0]
 80029e0:	6851      	ldr	r1, [r2, #4]
    CONFIGURE_GPIO(GPIOA, 6, 0b01, 0, 0b00);  //  LEDc
 80029e2:	303c      	adds	r0, #60	@ 0x3c
    CONFIGURE_GPIO(GPIOB, 1, 0b01, 0, 0b00);  //  LEDb
 80029e4:	43a9      	bics	r1, r5
 80029e6:	6051      	str	r1, [r2, #4]
 80029e8:	6891      	ldr	r1, [r2, #8]
    CONFIGURE_GPIO(GPIOA, 6, 0b01, 0, 0b00);  //  LEDc
 80029ea:	4681      	mov	r9, r0
    CONFIGURE_GPIO(GPIOB, 1, 0b01, 0, 0b00);  //  LEDb
 80029ec:	43a1      	bics	r1, r4
 80029ee:	6091      	str	r1, [r2, #8]
    CONFIGURE_GPIO(GPIOA, 6, 0b01, 0, 0b00);  //  LEDc
 80029f0:	2180      	movs	r1, #128	@ 0x80
 80029f2:	681f      	ldr	r7, [r3, #0]
 80029f4:	0149      	lsls	r1, r1, #5
 80029f6:	4037      	ands	r7, r6
 80029f8:	4339      	orrs	r1, r7
 80029fa:	6019      	str	r1, [r3, #0]
 80029fc:	6859      	ldr	r1, [r3, #4]
    CONFIGURE_GPIO(GPIOB, 3, 0b01, 0, 0b00);  //  LEDdp
 80029fe:	24c0      	movs	r4, #192	@ 0xc0
    CONFIGURE_GPIO(GPIOA, 6, 0b01, 0, 0b00);  //  LEDc
 8002a00:	4381      	bics	r1, r0
 8002a02:	6059      	str	r1, [r3, #4]
 8002a04:	6899      	ldr	r1, [r3, #8]
    CONFIGURE_GPIO(GPIOA, 9, 0b01, 0, 0b00);  //  LEDf
 8002a06:	4899      	ldr	r0, [pc, #612]	@ (8002c6c <GPIO_Init+0x2d4>)
    CONFIGURE_GPIO(GPIOA, 6, 0b01, 0, 0b00);  //  LEDc
 8002a08:	4031      	ands	r1, r6
 8002a0a:	6099      	str	r1, [r3, #8]
    CONFIGURE_GPIO(GPIOA, 5, 0b01, 0, 0b00);  //  LEDd
 8002a0c:	2180      	movs	r1, #128	@ 0x80
 8002a0e:	681f      	ldr	r7, [r3, #0]
 8002a10:	4e97      	ldr	r6, [pc, #604]	@ (8002c70 <GPIO_Init+0x2d8>)
 8002a12:	00c9      	lsls	r1, r1, #3
 8002a14:	4037      	ands	r7, r6
 8002a16:	4339      	orrs	r1, r7
 8002a18:	2720      	movs	r7, #32
 8002a1a:	6019      	str	r1, [r3, #0]
 8002a1c:	6859      	ldr	r1, [r3, #4]
    CONFIGURE_GPIO(GPIOB, 3, 0b01, 0, 0b00);  //  LEDdp
 8002a1e:	46a4      	mov	ip, r4
    CONFIGURE_GPIO(GPIOA, 5, 0b01, 0, 0b00);  //  LEDd
 8002a20:	43b9      	bics	r1, r7
 8002a22:	6059      	str	r1, [r3, #4]
 8002a24:	6899      	ldr	r1, [r3, #8]
    CONFIGURE_GPIO(GPIOA, 9, 0b01, 0, 0b00);  //  LEDf
 8002a26:	4682      	mov	sl, r0
    CONFIGURE_GPIO(GPIOA, 5, 0b01, 0, 0b00);  //  LEDd
 8002a28:	4031      	ands	r1, r6
 8002a2a:	6099      	str	r1, [r3, #8]
    CONFIGURE_GPIO(GPIOA, 11, 0b01, 0, 0b00); //  LEDe
 8002a2c:	2180      	movs	r1, #128	@ 0x80
 8002a2e:	681f      	ldr	r7, [r3, #0]
 8002a30:	4e90      	ldr	r6, [pc, #576]	@ (8002c74 <GPIO_Init+0x2dc>)
 8002a32:	03c9      	lsls	r1, r1, #15
 8002a34:	4037      	ands	r7, r6
 8002a36:	4339      	orrs	r1, r7
 8002a38:	6019      	str	r1, [r3, #0]
 8002a3a:	6859      	ldr	r1, [r3, #4]
 8002a3c:	4f8e      	ldr	r7, [pc, #568]	@ (8002c78 <GPIO_Init+0x2e0>)
 8002a3e:	4039      	ands	r1, r7
 8002a40:	6059      	str	r1, [r3, #4]
 8002a42:	6899      	ldr	r1, [r3, #8]
 8002a44:	4031      	ands	r1, r6
 8002a46:	6099      	str	r1, [r3, #8]
    CONFIGURE_GPIO(GPIOA, 9, 0b01, 0, 0b00);  //  LEDf
 8002a48:	2180      	movs	r1, #128	@ 0x80
 8002a4a:	681e      	ldr	r6, [r3, #0]
 8002a4c:	02c9      	lsls	r1, r1, #11
 8002a4e:	4006      	ands	r6, r0
 8002a50:	4331      	orrs	r1, r6
 8002a52:	6019      	str	r1, [r3, #0]
 8002a54:	6859      	ldr	r1, [r3, #4]
 8002a56:	4e89      	ldr	r6, [pc, #548]	@ (8002c7c <GPIO_Init+0x2e4>)
 8002a58:	4031      	ands	r1, r6
 8002a5a:	6059      	str	r1, [r3, #4]
 8002a5c:	6899      	ldr	r1, [r3, #8]
    CONFIGURE_GPIO(GPIOB, 0, 0b01, 0, 0b00);  //  LEDg
 8002a5e:	2603      	movs	r6, #3
    CONFIGURE_GPIO(GPIOA, 9, 0b01, 0, 0b00);  //  LEDf
 8002a60:	4001      	ands	r1, r0
 8002a62:	6099      	str	r1, [r3, #8]
    CONFIGURE_GPIO(GPIOB, 0, 0b01, 0, 0b00);  //  LEDg
 8002a64:	2101      	movs	r1, #1
 8002a66:	6817      	ldr	r7, [r2, #0]
 8002a68:	43b7      	bics	r7, r6
 8002a6a:	430f      	orrs	r7, r1
 8002a6c:	6017      	str	r7, [r2, #0]
 8002a6e:	6857      	ldr	r7, [r2, #4]
 8002a70:	438f      	bics	r7, r1
 8002a72:	6057      	str	r7, [r2, #4]
 8002a74:	6897      	ldr	r7, [r2, #8]
 8002a76:	43b7      	bics	r7, r6
 8002a78:	6097      	str	r7, [r2, #8]
    CONFIGURE_GPIO(GPIOB, 3, 0b01, 0, 0b00);  //  LEDdp
 8002a7a:	6817      	ldr	r7, [r2, #0]
 8002a7c:	43a7      	bics	r7, r4
 8002a7e:	464c      	mov	r4, r9
 8002a80:	4327      	orrs	r7, r4
 8002a82:	6017      	str	r7, [r2, #0]
 8002a84:	6857      	ldr	r7, [r2, #4]
 8002a86:	3c38      	subs	r4, #56	@ 0x38
 8002a88:	46a0      	mov	r8, r4
 8002a8a:	43a7      	bics	r7, r4
 8002a8c:	4664      	mov	r4, ip
 8002a8e:	6057      	str	r7, [r2, #4]
 8002a90:	6897      	ldr	r7, [r2, #8]
 8002a92:	43a7      	bics	r7, r4
 8002a94:	6097      	str	r7, [r2, #8]
    CONFIGURE_GPIO(GPIOA, 3, 0b01, 0, 0b00);  //  LEDD1
 8002a96:	681f      	ldr	r7, [r3, #0]
 8002a98:	43a7      	bics	r7, r4
 8002a9a:	464c      	mov	r4, r9
 8002a9c:	4327      	orrs	r7, r4
 8002a9e:	4644      	mov	r4, r8
 8002aa0:	601f      	str	r7, [r3, #0]
 8002aa2:	685f      	ldr	r7, [r3, #4]
 8002aa4:	43a7      	bics	r7, r4
 8002aa6:	4664      	mov	r4, ip
 8002aa8:	605f      	str	r7, [r3, #4]
 8002aaa:	689f      	ldr	r7, [r3, #8]
 8002aac:	43a7      	bics	r7, r4
 8002aae:	609f      	str	r7, [r3, #8]
    CONFIGURE_GPIO(GPIOA, 4, 0b01, 0, 0b00);  //  LEDD2
 8002ab0:	681c      	ldr	r4, [r3, #0]
 8002ab2:	4f73      	ldr	r7, [pc, #460]	@ (8002c80 <GPIO_Init+0x2e8>)
 8002ab4:	403c      	ands	r4, r7
 8002ab6:	46a0      	mov	r8, r4
 8002ab8:	2480      	movs	r4, #128	@ 0x80
 8002aba:	0064      	lsls	r4, r4, #1
 8002abc:	46a4      	mov	ip, r4
 8002abe:	4644      	mov	r4, r8
 8002ac0:	4665      	mov	r5, ip
 8002ac2:	432c      	orrs	r4, r5
 8002ac4:	601c      	str	r4, [r3, #0]
 8002ac6:	685c      	ldr	r4, [r3, #4]
 8002ac8:	3df0      	subs	r5, #240	@ 0xf0
 8002aca:	43ac      	bics	r4, r5
 8002acc:	605c      	str	r4, [r3, #4]
 8002ace:	689c      	ldr	r4, [r3, #8]
    CONFIGURE_GPIO(GPIOA, 12, 0b01, 0, 0b00); //  LEDD3
 8002ad0:	4d6c      	ldr	r5, [pc, #432]	@ (8002c84 <GPIO_Init+0x2ec>)
    CONFIGURE_GPIO(GPIOA, 4, 0b01, 0, 0b00);  //  LEDD2
 8002ad2:	403c      	ands	r4, r7
 8002ad4:	609c      	str	r4, [r3, #8]
    CONFIGURE_GPIO(GPIOA, 12, 0b01, 0, 0b00); //  LEDD3
 8002ad6:	681c      	ldr	r4, [r3, #0]
 8002ad8:	402c      	ands	r4, r5
 8002ada:	46a3      	mov	fp, r4
 8002adc:	2480      	movs	r4, #128	@ 0x80
 8002ade:	0464      	lsls	r4, r4, #17
 8002ae0:	46a0      	mov	r8, r4
 8002ae2:	465c      	mov	r4, fp
 8002ae4:	4640      	mov	r0, r8
 8002ae6:	4304      	orrs	r4, r0
 8002ae8:	601c      	str	r4, [r3, #0]
 8002aea:	685c      	ldr	r4, [r3, #4]
 8002aec:	46a0      	mov	r8, r4
 8002aee:	4c66      	ldr	r4, [pc, #408]	@ (8002c88 <GPIO_Init+0x2f0>)
 8002af0:	46a3      	mov	fp, r4
 8002af2:	4644      	mov	r4, r8
 8002af4:	4658      	mov	r0, fp
 8002af6:	4004      	ands	r4, r0
 8002af8:	605c      	str	r4, [r3, #4]
 8002afa:	689c      	ldr	r4, [r3, #8]
 8002afc:	0020      	movs	r0, r4
 8002afe:	4028      	ands	r0, r5
 8002b00:	6098      	str	r0, [r3, #8]
    CONFIGURE_GPIO(GPIOB, 4, 0b01, 0, 0b00);  //  LEDD4
 8002b02:	6814      	ldr	r4, [r2, #0]
 8002b04:	2510      	movs	r5, #16
 8002b06:	403c      	ands	r4, r7
 8002b08:	46a0      	mov	r8, r4
 8002b0a:	4664      	mov	r4, ip
 8002b0c:	4640      	mov	r0, r8
 8002b0e:	4304      	orrs	r4, r0
 8002b10:	6014      	str	r4, [r2, #0]
 8002b12:	6854      	ldr	r4, [r2, #4]
 8002b14:	43ac      	bics	r4, r5
 8002b16:	6054      	str	r4, [r2, #4]
 8002b18:	6894      	ldr	r4, [r2, #8]
 8002b1a:	4027      	ands	r7, r4
 8002b1c:	6097      	str	r7, [r2, #8]
    CONFIGURE_GPIO(GPIOA, 10, 0b01, 0, 0b00); //  LEDl1l2
 8002b1e:	681f      	ldr	r7, [r3, #0]
 8002b20:	4c5a      	ldr	r4, [pc, #360]	@ (8002c8c <GPIO_Init+0x2f4>)
 8002b22:	46a4      	mov	ip, r4
 8002b24:	403c      	ands	r4, r7
 8002b26:	2780      	movs	r7, #128	@ 0x80
 8002b28:	037f      	lsls	r7, r7, #13
 8002b2a:	4327      	orrs	r7, r4
 8002b2c:	601f      	str	r7, [r3, #0]
 8002b2e:	685f      	ldr	r7, [r3, #4]
 8002b30:	4c57      	ldr	r4, [pc, #348]	@ (8002c90 <GPIO_Init+0x2f8>)
 8002b32:	4027      	ands	r7, r4
 8002b34:	4664      	mov	r4, ip
 8002b36:	605f      	str	r7, [r3, #4]
 8002b38:	689f      	ldr	r7, [r3, #8]
 8002b3a:	4027      	ands	r7, r4
 8002b3c:	609f      	str	r7, [r3, #8]
    CONFIGURE_GPIO(GPIOA, 8, 0b01, 0, 0b00);  //  LEDalarm
 8002b3e:	681f      	ldr	r7, [r3, #0]
 8002b40:	4c54      	ldr	r4, [pc, #336]	@ (8002c94 <GPIO_Init+0x2fc>)
 8002b42:	46a4      	mov	ip, r4
 8002b44:	403c      	ands	r4, r7
 8002b46:	2780      	movs	r7, #128	@ 0x80
 8002b48:	027f      	lsls	r7, r7, #9
 8002b4a:	4327      	orrs	r7, r4
 8002b4c:	601f      	str	r7, [r3, #0]
 8002b4e:	685f      	ldr	r7, [r3, #4]
 8002b50:	4c51      	ldr	r4, [pc, #324]	@ (8002c98 <GPIO_Init+0x300>)
 8002b52:	4027      	ands	r7, r4
 8002b54:	4664      	mov	r4, ip
 8002b56:	605f      	str	r7, [r3, #4]
 8002b58:	689f      	ldr	r7, [r3, #8]
 8002b5a:	4027      	ands	r7, r4
 8002b5c:	609f      	str	r7, [r3, #8]
    CONFIGURE_GPIO(GPIOC, 15, 0b01, 0, 0b00); //  pinEN
 8002b5e:	4f4f      	ldr	r7, [pc, #316]	@ (8002c9c <GPIO_Init+0x304>)
 8002b60:	683c      	ldr	r4, [r7, #0]
 8002b62:	00a4      	lsls	r4, r4, #2
 8002b64:	08a4      	lsrs	r4, r4, #2
 8002b66:	46a4      	mov	ip, r4
 8002b68:	2480      	movs	r4, #128	@ 0x80
 8002b6a:	05e4      	lsls	r4, r4, #23
 8002b6c:	46a0      	mov	r8, r4
 8002b6e:	4664      	mov	r4, ip
 8002b70:	4645      	mov	r5, r8
 8002b72:	432c      	orrs	r4, r5
 8002b74:	603c      	str	r4, [r7, #0]
 8002b76:	687c      	ldr	r4, [r7, #4]
 8002b78:	46a4      	mov	ip, r4
 8002b7a:	4c49      	ldr	r4, [pc, #292]	@ (8002ca0 <GPIO_Init+0x308>)
 8002b7c:	46a0      	mov	r8, r4
 8002b7e:	4664      	mov	r4, ip
 8002b80:	4645      	mov	r5, r8
 8002b82:	402c      	ands	r4, r5
 8002b84:	607c      	str	r4, [r7, #4]
 8002b86:	68bc      	ldr	r4, [r7, #8]
    CONFIGURE_GPIO(GPIOA, 1, 0b00, 0, 0b11); //  enter
 8002b88:	2502      	movs	r5, #2
    CONFIGURE_GPIO(GPIOC, 15, 0b01, 0, 0b00); //  pinEN
 8002b8a:	00a4      	lsls	r4, r4, #2
 8002b8c:	08a4      	lsrs	r4, r4, #2
 8002b8e:	60bc      	str	r4, [r7, #8]
    CONFIGURE_EXTI(0, 0b000, 0, 1);          // EXTI   decrement
 8002b90:	240f      	movs	r4, #15
    CONFIGURE_GPIO(GPIOA, 0, 0b00, 0, 0b11); //  decrement
 8002b92:	681f      	ldr	r7, [r3, #0]
    CONFIGURE_GPIO(GPIOA, 1, 0b00, 0, 0b11); //  enter
 8002b94:	0028      	movs	r0, r5
    CONFIGURE_GPIO(GPIOA, 0, 0b00, 0, 0b11); //  decrement
 8002b96:	43b7      	bics	r7, r6
 8002b98:	601f      	str	r7, [r3, #0]
 8002b9a:	685f      	ldr	r7, [r3, #4]
 8002b9c:	438f      	bics	r7, r1
 8002b9e:	605f      	str	r7, [r3, #4]
 8002ba0:	689f      	ldr	r7, [r3, #8]
 8002ba2:	433e      	orrs	r6, r7
    CONFIGURE_EXTI(0, 0b000, 0, 1);          // EXTI   decrement
 8002ba4:	4f3f      	ldr	r7, [pc, #252]	@ (8002ca4 <GPIO_Init+0x30c>)
    CONFIGURE_GPIO(GPIOA, 0, 0b00, 0, 0b11); //  decrement
 8002ba6:	609e      	str	r6, [r3, #8]
    CONFIGURE_EXTI(0, 0b000, 0, 1);          // EXTI   decrement
 8002ba8:	68be      	ldr	r6, [r7, #8]
 8002baa:	43a6      	bics	r6, r4
 8002bac:	60be      	str	r6, [r7, #8]
 8002bae:	4e3e      	ldr	r6, [pc, #248]	@ (8002ca8 <GPIO_Init+0x310>)
 8002bb0:	6834      	ldr	r4, [r6, #0]
 8002bb2:	430c      	orrs	r4, r1
 8002bb4:	6034      	str	r4, [r6, #0]
 8002bb6:	68f4      	ldr	r4, [r6, #12]
 8002bb8:	4321      	orrs	r1, r4
    CONFIGURE_GPIO(GPIOA, 1, 0b00, 0, 0b11); //  enter
 8002bba:	240c      	movs	r4, #12
    CONFIGURE_EXTI(0, 0b000, 0, 1);          // EXTI   decrement
 8002bbc:	60f1      	str	r1, [r6, #12]
    CONFIGURE_GPIO(GPIOA, 1, 0b00, 0, 0b11); //  enter
 8002bbe:	6819      	ldr	r1, [r3, #0]
 8002bc0:	43a1      	bics	r1, r4
 8002bc2:	6019      	str	r1, [r3, #0]
 8002bc4:	6859      	ldr	r1, [r3, #4]
 8002bc6:	43a9      	bics	r1, r5
 8002bc8:	6059      	str	r1, [r3, #4]
 8002bca:	6899      	ldr	r1, [r3, #8]
 8002bcc:	4321      	orrs	r1, r4
 8002bce:	6099      	str	r1, [r3, #8]
    CONFIGURE_EXTI(1, 0b000, 0, 1);          // EXTI   enter
 8002bd0:	21f0      	movs	r1, #240	@ 0xf0
 8002bd2:	0004      	movs	r4, r0
 8002bd4:	68bd      	ldr	r5, [r7, #8]
 8002bd6:	438d      	bics	r5, r1
 8002bd8:	60bd      	str	r5, [r7, #8]
 8002bda:	6835      	ldr	r5, [r6, #0]
 8002bdc:	4305      	orrs	r5, r0
 8002bde:	6035      	str	r5, [r6, #0]
 8002be0:	68f5      	ldr	r5, [r6, #12]
    CONFIGURE_GPIO(GPIOA, 2, 0b00, 0, 0b11); //  increment
 8002be2:	3002      	adds	r0, #2
    CONFIGURE_EXTI(1, 0b000, 0, 1);          // EXTI   enter
 8002be4:	432c      	orrs	r4, r5
    CONFIGURE_GPIO(GPIOA, 2, 0b00, 0, 0b11); //  increment
 8002be6:	2530      	movs	r5, #48	@ 0x30
    CONFIGURE_EXTI(1, 0b000, 0, 1);          // EXTI   enter
 8002be8:	60f4      	str	r4, [r6, #12]
    CONFIGURE_GPIO(GPIOA, 2, 0b00, 0, 0b11); //  increment
 8002bea:	681c      	ldr	r4, [r3, #0]
 8002bec:	43ac      	bics	r4, r5
 8002bee:	601c      	str	r4, [r3, #0]
 8002bf0:	685c      	ldr	r4, [r3, #4]
 8002bf2:	4384      	bics	r4, r0
 8002bf4:	605c      	str	r4, [r3, #4]
 8002bf6:	689c      	ldr	r4, [r3, #8]
 8002bf8:	432c      	orrs	r4, r5
 8002bfa:	609c      	str	r4, [r3, #8]
    CONFIGURE_EXTI(2, 0b000, 0, 1);          // EXTI   increment
 8002bfc:	68bb      	ldr	r3, [r7, #8]
 8002bfe:	4c2b      	ldr	r4, [pc, #172]	@ (8002cac <GPIO_Init+0x314>)
 8002c00:	4023      	ands	r3, r4
    CONFIGURE_GPIO(GPIOB, 9, 0b00, 0, 0b11); //  pwr
 8002c02:	4654      	mov	r4, sl
    CONFIGURE_EXTI(2, 0b000, 0, 1);          // EXTI   increment
 8002c04:	60bb      	str	r3, [r7, #8]
 8002c06:	6833      	ldr	r3, [r6, #0]
 8002c08:	4303      	orrs	r3, r0
 8002c0a:	6033      	str	r3, [r6, #0]
 8002c0c:	68f3      	ldr	r3, [r6, #12]
 8002c0e:	4303      	orrs	r3, r0
 8002c10:	60f3      	str	r3, [r6, #12]
    CONFIGURE_GPIO(GPIOB, 9, 0b00, 0, 0b11); //  pwr
 8002c12:	6813      	ldr	r3, [r2, #0]
 8002c14:	4819      	ldr	r0, [pc, #100]	@ (8002c7c <GPIO_Init+0x2e4>)
 8002c16:	4023      	ands	r3, r4
 8002c18:	6013      	str	r3, [r2, #0]
 8002c1a:	6853      	ldr	r3, [r2, #4]
 8002c1c:	4003      	ands	r3, r0
 8002c1e:	6053      	str	r3, [r2, #4]
 8002c20:	23c0      	movs	r3, #192	@ 0xc0
 8002c22:	6890      	ldr	r0, [r2, #8]
 8002c24:	031b      	lsls	r3, r3, #12
 8002c26:	4303      	orrs	r3, r0
 8002c28:	6093      	str	r3, [r2, #8]
    CONFIGURE_EXTI(9, 0b000, 2, 3);          // EXTI   pwr    
 8002c2a:	693b      	ldr	r3, [r7, #16]
 8002c2c:	438b      	bics	r3, r1
 8002c2e:	613b      	str	r3, [r7, #16]
 8002c30:	2380      	movs	r3, #128	@ 0x80
 8002c32:	6832      	ldr	r2, [r6, #0]
 8002c34:	009b      	lsls	r3, r3, #2
 8002c36:	431a      	orrs	r2, r3
 8002c38:	6032      	str	r2, [r6, #0]
 8002c3a:	68f2      	ldr	r2, [r6, #12]
 8002c3c:	2720      	movs	r7, #32
 8002c3e:	4313      	orrs	r3, r2
 8002c40:	464a      	mov	r2, r9
 8002c42:	60f3      	str	r3, [r6, #12]
 8002c44:	4b1a      	ldr	r3, [pc, #104]	@ (8002cb0 <GPIO_Init+0x318>)
 8002c46:	3970      	subs	r1, #112	@ 0x70
 8002c48:	601f      	str	r7, [r3, #0]
 8002c4a:	601a      	str	r2, [r3, #0]
 8002c4c:	6019      	str	r1, [r3, #0]
}
 8002c4e:	bcf0      	pop	{r4, r5, r6, r7}
 8002c50:	46bb      	mov	fp, r7
 8002c52:	46b2      	mov	sl, r6
 8002c54:	46a9      	mov	r9, r5
 8002c56:	46a0      	mov	r8, r4
 8002c58:	bdf0      	pop	{r4, r5, r6, r7, pc}
 8002c5a:	46c0      	nop			@ (mov r8, r8)
 8002c5c:	40021000 	.word	0x40021000
 8002c60:	ffff3fff 	.word	0xffff3fff
 8002c64:	50000400 	.word	0x50000400
 8002c68:	ffffcfff 	.word	0xffffcfff
 8002c6c:	fff3ffff 	.word	0xfff3ffff
 8002c70:	fffff3ff 	.word	0xfffff3ff
 8002c74:	ff3fffff 	.word	0xff3fffff
 8002c78:	fffff7ff 	.word	0xfffff7ff
 8002c7c:	fffffdff 	.word	0xfffffdff
 8002c80:	fffffcff 	.word	0xfffffcff
 8002c84:	fcffffff 	.word	0xfcffffff
 8002c88:	ffffefff 	.word	0xffffefff
 8002c8c:	ffcfffff 	.word	0xffcfffff
 8002c90:	fffffbff 	.word	0xfffffbff
 8002c94:	fffcffff 	.word	0xfffcffff
 8002c98:	fffffeff 	.word	0xfffffeff
 8002c9c:	50000800 	.word	0x50000800
 8002ca0:	ffff7fff 	.word	0xffff7fff
 8002ca4:	40010000 	.word	0x40010000
 8002ca8:	40010400 	.word	0x40010400
 8002cac:	fffff0ff 	.word	0xfffff0ff
 8002cb0:	e000e100 	.word	0xe000e100

08002cb4 <writeCHARSEG>:
    LEDD1_OFF();
 8002cb4:	23a0      	movs	r3, #160	@ 0xa0
 8002cb6:	2280      	movs	r2, #128	@ 0x80
 8002cb8:	05db      	lsls	r3, r3, #23
{
 8002cba:	b530      	push	{r4, r5, lr}
    LEDD1_OFF();
 8002cbc:	699c      	ldr	r4, [r3, #24]
 8002cbe:	0312      	lsls	r2, r2, #12
 8002cc0:	4322      	orrs	r2, r4
 8002cc2:	619a      	str	r2, [r3, #24]
    LEDD2_OFF();
 8002cc4:	2280      	movs	r2, #128	@ 0x80
 8002cc6:	699c      	ldr	r4, [r3, #24]
 8002cc8:	0352      	lsls	r2, r2, #13
 8002cca:	4314      	orrs	r4, r2
 8002ccc:	619c      	str	r4, [r3, #24]
    LEDD3_OFF();
 8002cce:	2480      	movs	r4, #128	@ 0x80
 8002cd0:	699d      	ldr	r5, [r3, #24]
 8002cd2:	0564      	lsls	r4, r4, #21
 8002cd4:	432c      	orrs	r4, r5
 8002cd6:	619c      	str	r4, [r3, #24]
    LEDD4_OFF();
 8002cd8:	4cad      	ldr	r4, [pc, #692]	@ (8002f90 <writeCHARSEG+0x2dc>)
 8002cda:	69a5      	ldr	r5, [r4, #24]
 8002cdc:	432a      	orrs	r2, r5
 8002cde:	61a2      	str	r2, [r4, #24]
    switch (seg)
 8002ce0:	2902      	cmp	r1, #2
 8002ce2:	d05f      	beq.n	8002da4 <writeCHARSEG+0xf0>
 8002ce4:	d852      	bhi.n	8002d8c <writeCHARSEG+0xd8>
 8002ce6:	2900      	cmp	r1, #0
 8002ce8:	d057      	beq.n	8002d9a <writeCHARSEG+0xe6>
        LEDD2_ON();
 8002cea:	2110      	movs	r1, #16
 8002cec:	699a      	ldr	r2, [r3, #24]
 8002cee:	430a      	orrs	r2, r1
 8002cf0:	619a      	str	r2, [r3, #24]
    LEDa_OFF();
 8002cf2:	23a0      	movs	r3, #160	@ 0xa0
 8002cf4:	2280      	movs	r2, #128	@ 0x80
 8002cf6:	05db      	lsls	r3, r3, #23
 8002cf8:	6999      	ldr	r1, [r3, #24]
 8002cfa:	0412      	lsls	r2, r2, #16
 8002cfc:	430a      	orrs	r2, r1
    LEDb_OFF();
 8002cfe:	2180      	movs	r1, #128	@ 0x80
    LEDa_OFF();
 8002d00:	619a      	str	r2, [r3, #24]
    LEDb_OFF();
 8002d02:	4aa3      	ldr	r2, [pc, #652]	@ (8002f90 <writeCHARSEG+0x2dc>)
 8002d04:	0289      	lsls	r1, r1, #10
 8002d06:	6994      	ldr	r4, [r2, #24]
    switch (CHAR)
 8002d08:	382e      	subs	r0, #46	@ 0x2e
    LEDb_OFF();
 8002d0a:	4321      	orrs	r1, r4
 8002d0c:	6191      	str	r1, [r2, #24]
    LEDc_OFF();
 8002d0e:	2180      	movs	r1, #128	@ 0x80
 8002d10:	699c      	ldr	r4, [r3, #24]
 8002d12:	03c9      	lsls	r1, r1, #15
 8002d14:	4321      	orrs	r1, r4
 8002d16:	6199      	str	r1, [r3, #24]
    LEDd_OFF();
 8002d18:	2180      	movs	r1, #128	@ 0x80
 8002d1a:	699c      	ldr	r4, [r3, #24]
 8002d1c:	0389      	lsls	r1, r1, #14
 8002d1e:	4321      	orrs	r1, r4
 8002d20:	6199      	str	r1, [r3, #24]
    LEDe_OFF();
 8002d22:	2180      	movs	r1, #128	@ 0x80
 8002d24:	699c      	ldr	r4, [r3, #24]
 8002d26:	0509      	lsls	r1, r1, #20
 8002d28:	4321      	orrs	r1, r4
 8002d2a:	6199      	str	r1, [r3, #24]
    LEDf_OFF();
 8002d2c:	2180      	movs	r1, #128	@ 0x80
 8002d2e:	699c      	ldr	r4, [r3, #24]
 8002d30:	0489      	lsls	r1, r1, #18
 8002d32:	4321      	orrs	r1, r4
 8002d34:	6199      	str	r1, [r3, #24]
    LEDg_OFF();
 8002d36:	2380      	movs	r3, #128	@ 0x80
 8002d38:	6991      	ldr	r1, [r2, #24]
 8002d3a:	025b      	lsls	r3, r3, #9
 8002d3c:	430b      	orrs	r3, r1
 8002d3e:	6193      	str	r3, [r2, #24]
    LEDdp_OFF();
 8002d40:	2380      	movs	r3, #128	@ 0x80
 8002d42:	6991      	ldr	r1, [r2, #24]
 8002d44:	031b      	lsls	r3, r3, #12
 8002d46:	430b      	orrs	r3, r1
    switch (CHAR)
 8002d48:	b2c0      	uxtb	r0, r0
    LEDdp_OFF();
 8002d4a:	6193      	str	r3, [r2, #24]
    switch (CHAR)
 8002d4c:	2831      	cmp	r0, #49	@ 0x31
 8002d4e:	d81c      	bhi.n	8002d8a <writeCHARSEG+0xd6>
 8002d50:	4b90      	ldr	r3, [pc, #576]	@ (8002f94 <writeCHARSEG+0x2e0>)
 8002d52:	0080      	lsls	r0, r0, #2
 8002d54:	581b      	ldr	r3, [r3, r0]
 8002d56:	469f      	mov	pc, r3
        LEDa_ON();
 8002d58:	23a0      	movs	r3, #160	@ 0xa0
 8002d5a:	2180      	movs	r1, #128	@ 0x80
        LEDb_ON();
 8002d5c:	2002      	movs	r0, #2
        LEDa_ON();
 8002d5e:	05db      	lsls	r3, r3, #23
 8002d60:	699a      	ldr	r2, [r3, #24]
 8002d62:	430a      	orrs	r2, r1
 8002d64:	619a      	str	r2, [r3, #24]
        LEDb_ON();
 8002d66:	4a8a      	ldr	r2, [pc, #552]	@ (8002f90 <writeCHARSEG+0x2dc>)
 8002d68:	6991      	ldr	r1, [r2, #24]
 8002d6a:	4301      	orrs	r1, r0
 8002d6c:	6191      	str	r1, [r2, #24]
        LEDe_ON();
 8002d6e:	2180      	movs	r1, #128	@ 0x80
 8002d70:	6998      	ldr	r0, [r3, #24]
 8002d72:	0109      	lsls	r1, r1, #4
        LEDd_ON();
 8002d74:	4301      	orrs	r1, r0
 8002d76:	6199      	str	r1, [r3, #24]
        LEDf_ON();
 8002d78:	2180      	movs	r1, #128	@ 0x80
 8002d7a:	6998      	ldr	r0, [r3, #24]
 8002d7c:	0089      	lsls	r1, r1, #2
 8002d7e:	4301      	orrs	r1, r0
 8002d80:	6199      	str	r1, [r3, #24]
        LEDg_ON();
 8002d82:	2101      	movs	r1, #1
 8002d84:	6993      	ldr	r3, [r2, #24]
 8002d86:	430b      	orrs	r3, r1
 8002d88:	6193      	str	r3, [r2, #24]
}
 8002d8a:	bd30      	pop	{r4, r5, pc}
    switch (seg)
 8002d8c:	2903      	cmp	r1, #3
 8002d8e:	d1b0      	bne.n	8002cf2 <writeCHARSEG+0x3e>
        LEDD4_ON();
 8002d90:	2210      	movs	r2, #16
 8002d92:	69a3      	ldr	r3, [r4, #24]
 8002d94:	4313      	orrs	r3, r2
 8002d96:	61a3      	str	r3, [r4, #24]
        break;
 8002d98:	e7ab      	b.n	8002cf2 <writeCHARSEG+0x3e>
        LEDD1_ON();
 8002d9a:	2108      	movs	r1, #8
 8002d9c:	699a      	ldr	r2, [r3, #24]
 8002d9e:	430a      	orrs	r2, r1
 8002da0:	619a      	str	r2, [r3, #24]
        break;
 8002da2:	e7a6      	b.n	8002cf2 <writeCHARSEG+0x3e>
        LEDD3_ON();
 8002da4:	2280      	movs	r2, #128	@ 0x80
 8002da6:	6999      	ldr	r1, [r3, #24]
 8002da8:	0152      	lsls	r2, r2, #5
 8002daa:	430a      	orrs	r2, r1
 8002dac:	619a      	str	r2, [r3, #24]
        break;
 8002dae:	e7a0      	b.n	8002cf2 <writeCHARSEG+0x3e>
        LEDd_ON();
 8002db0:	22a0      	movs	r2, #160	@ 0xa0
 8002db2:	2120      	movs	r1, #32
 8002db4:	05d2      	lsls	r2, r2, #23
 8002db6:	6993      	ldr	r3, [r2, #24]
 8002db8:	430b      	orrs	r3, r1
 8002dba:	6193      	str	r3, [r2, #24]
        break;
 8002dbc:	e7e5      	b.n	8002d8a <writeCHARSEG+0xd6>
        LEDa_ON();
 8002dbe:	23a0      	movs	r3, #160	@ 0xa0
 8002dc0:	2180      	movs	r1, #128	@ 0x80
        LEDb_ON();
 8002dc2:	2002      	movs	r0, #2
        LEDa_ON();
 8002dc4:	05db      	lsls	r3, r3, #23
 8002dc6:	699a      	ldr	r2, [r3, #24]
 8002dc8:	430a      	orrs	r2, r1
 8002dca:	619a      	str	r2, [r3, #24]
        LEDb_ON();
 8002dcc:	4a70      	ldr	r2, [pc, #448]	@ (8002f90 <writeCHARSEG+0x2dc>)
 8002dce:	6991      	ldr	r1, [r2, #24]
 8002dd0:	4301      	orrs	r1, r0
 8002dd2:	6191      	str	r1, [r2, #24]
        LEDe_ON();
 8002dd4:	2180      	movs	r1, #128	@ 0x80
 8002dd6:	6998      	ldr	r0, [r3, #24]
 8002dd8:	0109      	lsls	r1, r1, #4
 8002dda:	4301      	orrs	r1, r0
 8002ddc:	6199      	str	r1, [r3, #24]
        LEDf_ON();
 8002dde:	2180      	movs	r1, #128	@ 0x80
 8002de0:	6998      	ldr	r0, [r3, #24]
 8002de2:	0089      	lsls	r1, r1, #2
 8002de4:	4301      	orrs	r1, r0
 8002de6:	6199      	str	r1, [r3, #24]
        LEDdp_ON();
 8002de8:	2108      	movs	r1, #8
 8002dea:	6993      	ldr	r3, [r2, #24]
 8002dec:	430b      	orrs	r3, r1
 8002dee:	6193      	str	r3, [r2, #24]
        break;
 8002df0:	e7cb      	b.n	8002d8a <writeCHARSEG+0xd6>
        LEDa_ON();
 8002df2:	23a0      	movs	r3, #160	@ 0xa0
 8002df4:	2180      	movs	r1, #128	@ 0x80
        LEDb_ON();
 8002df6:	2002      	movs	r0, #2
        LEDa_ON();
 8002df8:	05db      	lsls	r3, r3, #23
 8002dfa:	699a      	ldr	r2, [r3, #24]
 8002dfc:	430a      	orrs	r2, r1
 8002dfe:	619a      	str	r2, [r3, #24]
        LEDb_ON();
 8002e00:	4a63      	ldr	r2, [pc, #396]	@ (8002f90 <writeCHARSEG+0x2dc>)
 8002e02:	6991      	ldr	r1, [r2, #24]
 8002e04:	4301      	orrs	r1, r0
 8002e06:	6191      	str	r1, [r2, #24]
        LEDc_ON();
 8002e08:	6999      	ldr	r1, [r3, #24]
 8002e0a:	303e      	adds	r0, #62	@ 0x3e
 8002e0c:	4301      	orrs	r1, r0
 8002e0e:	6199      	str	r1, [r3, #24]
        LEDd_ON();
 8002e10:	6999      	ldr	r1, [r3, #24]
 8002e12:	3820      	subs	r0, #32
 8002e14:	e7ae      	b.n	8002d74 <writeCHARSEG+0xc0>
        LEDa_ON();
 8002e16:	23a0      	movs	r3, #160	@ 0xa0
 8002e18:	2180      	movs	r1, #128	@ 0x80
        LEDb_ON();
 8002e1a:	2002      	movs	r0, #2
        LEDa_ON();
 8002e1c:	05db      	lsls	r3, r3, #23
 8002e1e:	699a      	ldr	r2, [r3, #24]
 8002e20:	430a      	orrs	r2, r1
 8002e22:	619a      	str	r2, [r3, #24]
        LEDb_ON();
 8002e24:	4a5a      	ldr	r2, [pc, #360]	@ (8002f90 <writeCHARSEG+0x2dc>)
 8002e26:	6991      	ldr	r1, [r2, #24]
 8002e28:	4301      	orrs	r1, r0
 8002e2a:	6191      	str	r1, [r2, #24]
        LEDc_ON();
 8002e2c:	6999      	ldr	r1, [r3, #24]
 8002e2e:	303e      	adds	r0, #62	@ 0x3e
 8002e30:	4301      	orrs	r1, r0
 8002e32:	6199      	str	r1, [r3, #24]
        LEDd_ON();
 8002e34:	6999      	ldr	r1, [r3, #24]
 8002e36:	3820      	subs	r0, #32
 8002e38:	4301      	orrs	r1, r0
 8002e3a:	6199      	str	r1, [r3, #24]
        LEDe_ON();
 8002e3c:	2180      	movs	r1, #128	@ 0x80
 8002e3e:	6998      	ldr	r0, [r3, #24]
 8002e40:	0109      	lsls	r1, r1, #4
 8002e42:	e797      	b.n	8002d74 <writeCHARSEG+0xc0>
        LEDa_ON();
 8002e44:	23a0      	movs	r3, #160	@ 0xa0
 8002e46:	2180      	movs	r1, #128	@ 0x80
        LEDb_ON();
 8002e48:	2002      	movs	r0, #2
        LEDa_ON();
 8002e4a:	05db      	lsls	r3, r3, #23
 8002e4c:	699a      	ldr	r2, [r3, #24]
 8002e4e:	430a      	orrs	r2, r1
        LEDb_ON();
 8002e50:	494f      	ldr	r1, [pc, #316]	@ (8002f90 <writeCHARSEG+0x2dc>)
        LEDa_ON();
 8002e52:	619a      	str	r2, [r3, #24]
        LEDb_ON();
 8002e54:	698a      	ldr	r2, [r1, #24]
 8002e56:	4302      	orrs	r2, r0
 8002e58:	618a      	str	r2, [r1, #24]
        LEDc_ON();
 8002e5a:	2140      	movs	r1, #64	@ 0x40
 8002e5c:	699a      	ldr	r2, [r3, #24]
 8002e5e:	430a      	orrs	r2, r1
 8002e60:	619a      	str	r2, [r3, #24]
        break;
 8002e62:	e792      	b.n	8002d8a <writeCHARSEG+0xd6>
        LEDa_ON();
 8002e64:	23a0      	movs	r3, #160	@ 0xa0
 8002e66:	2180      	movs	r1, #128	@ 0x80
 8002e68:	05db      	lsls	r3, r3, #23
 8002e6a:	699a      	ldr	r2, [r3, #24]
 8002e6c:	430a      	orrs	r2, r1
 8002e6e:	619a      	str	r2, [r3, #24]
        LEDc_ON();
 8002e70:	699a      	ldr	r2, [r3, #24]
 8002e72:	3940      	subs	r1, #64	@ 0x40
 8002e74:	430a      	orrs	r2, r1
 8002e76:	619a      	str	r2, [r3, #24]
        LEDd_ON();
 8002e78:	699a      	ldr	r2, [r3, #24]
 8002e7a:	3920      	subs	r1, #32
 8002e7c:	430a      	orrs	r2, r1
 8002e7e:	619a      	str	r2, [r3, #24]
        LEDe_ON();
 8002e80:	2280      	movs	r2, #128	@ 0x80
 8002e82:	6999      	ldr	r1, [r3, #24]
 8002e84:	0112      	lsls	r2, r2, #4
 8002e86:	430a      	orrs	r2, r1
 8002e88:	619a      	str	r2, [r3, #24]
        LEDf_ON();
 8002e8a:	2280      	movs	r2, #128	@ 0x80
 8002e8c:	6999      	ldr	r1, [r3, #24]
 8002e8e:	0092      	lsls	r2, r2, #2
 8002e90:	430a      	orrs	r2, r1
        LEDg_ON();
 8002e92:	2101      	movs	r1, #1
        LEDf_ON();
 8002e94:	619a      	str	r2, [r3, #24]
        LEDg_ON();
 8002e96:	4a3e      	ldr	r2, [pc, #248]	@ (8002f90 <writeCHARSEG+0x2dc>)
 8002e98:	6993      	ldr	r3, [r2, #24]
 8002e9a:	430b      	orrs	r3, r1
 8002e9c:	6193      	str	r3, [r2, #24]
        break;
 8002e9e:	e774      	b.n	8002d8a <writeCHARSEG+0xd6>
        LEDa_ON();
 8002ea0:	23a0      	movs	r3, #160	@ 0xa0
 8002ea2:	2180      	movs	r1, #128	@ 0x80
 8002ea4:	05db      	lsls	r3, r3, #23
 8002ea6:	699a      	ldr	r2, [r3, #24]
 8002ea8:	430a      	orrs	r2, r1
 8002eaa:	619a      	str	r2, [r3, #24]
        LEDc_ON();
 8002eac:	699a      	ldr	r2, [r3, #24]
 8002eae:	3940      	subs	r1, #64	@ 0x40
 8002eb0:	430a      	orrs	r2, r1
 8002eb2:	619a      	str	r2, [r3, #24]
        LEDd_ON();
 8002eb4:	699a      	ldr	r2, [r3, #24]
 8002eb6:	3920      	subs	r1, #32
 8002eb8:	e7e5      	b.n	8002e86 <writeCHARSEG+0x1d2>
        LEDb_ON();
 8002eba:	2102      	movs	r1, #2
 8002ebc:	4b34      	ldr	r3, [pc, #208]	@ (8002f90 <writeCHARSEG+0x2dc>)
        LEDc_ON();
 8002ebe:	2040      	movs	r0, #64	@ 0x40
        LEDb_ON();
 8002ec0:	699a      	ldr	r2, [r3, #24]
 8002ec2:	430a      	orrs	r2, r1
 8002ec4:	619a      	str	r2, [r3, #24]
        LEDc_ON();
 8002ec6:	22a0      	movs	r2, #160	@ 0xa0
 8002ec8:	05d2      	lsls	r2, r2, #23
 8002eca:	6991      	ldr	r1, [r2, #24]
 8002ecc:	4301      	orrs	r1, r0
 8002ece:	6191      	str	r1, [r2, #24]
        LEDf_ON();
 8002ed0:	2180      	movs	r1, #128	@ 0x80
 8002ed2:	6990      	ldr	r0, [r2, #24]
 8002ed4:	0089      	lsls	r1, r1, #2
 8002ed6:	4301      	orrs	r1, r0
 8002ed8:	6191      	str	r1, [r2, #24]
        LEDg_ON();
 8002eda:	2101      	movs	r1, #1
 8002edc:	699a      	ldr	r2, [r3, #24]
 8002ede:	430a      	orrs	r2, r1
 8002ee0:	619a      	str	r2, [r3, #24]
        break;
 8002ee2:	e752      	b.n	8002d8a <writeCHARSEG+0xd6>
        LEDa_ON();
 8002ee4:	23a0      	movs	r3, #160	@ 0xa0
 8002ee6:	2180      	movs	r1, #128	@ 0x80
        LEDb_ON();
 8002ee8:	2002      	movs	r0, #2
        LEDa_ON();
 8002eea:	05db      	lsls	r3, r3, #23
 8002eec:	699a      	ldr	r2, [r3, #24]
 8002eee:	430a      	orrs	r2, r1
 8002ef0:	619a      	str	r2, [r3, #24]
        LEDb_ON();
 8002ef2:	4a27      	ldr	r2, [pc, #156]	@ (8002f90 <writeCHARSEG+0x2dc>)
 8002ef4:	6991      	ldr	r1, [r2, #24]
 8002ef6:	4301      	orrs	r1, r0
 8002ef8:	6191      	str	r1, [r2, #24]
        LEDc_ON();
 8002efa:	6999      	ldr	r1, [r3, #24]
 8002efc:	303e      	adds	r0, #62	@ 0x3e
 8002efe:	4301      	orrs	r1, r0
 8002f00:	6199      	str	r1, [r3, #24]
        LEDd_ON();
 8002f02:	6999      	ldr	r1, [r3, #24]
 8002f04:	3820      	subs	r0, #32
 8002f06:	e73a      	b.n	8002d7e <writeCHARSEG+0xca>
        LEDa_ON();
 8002f08:	23a0      	movs	r3, #160	@ 0xa0
 8002f0a:	2180      	movs	r1, #128	@ 0x80
        LEDb_ON();
 8002f0c:	2002      	movs	r0, #2
        LEDa_ON();
 8002f0e:	05db      	lsls	r3, r3, #23
 8002f10:	699a      	ldr	r2, [r3, #24]
 8002f12:	430a      	orrs	r2, r1
 8002f14:	619a      	str	r2, [r3, #24]
        LEDb_ON();
 8002f16:	4a1e      	ldr	r2, [pc, #120]	@ (8002f90 <writeCHARSEG+0x2dc>)
 8002f18:	6991      	ldr	r1, [r2, #24]
 8002f1a:	4301      	orrs	r1, r0
 8002f1c:	6191      	str	r1, [r2, #24]
        LEDd_ON();
 8002f1e:	6999      	ldr	r1, [r3, #24]
 8002f20:	301e      	adds	r0, #30
 8002f22:	4301      	orrs	r1, r0
 8002f24:	6199      	str	r1, [r3, #24]
        LEDe_ON();
 8002f26:	2180      	movs	r1, #128	@ 0x80
 8002f28:	6998      	ldr	r0, [r3, #24]
 8002f2a:	0109      	lsls	r1, r1, #4
 8002f2c:	e727      	b.n	8002d7e <writeCHARSEG+0xca>
        LEDb_ON();
 8002f2e:	2102      	movs	r1, #2
 8002f30:	4a17      	ldr	r2, [pc, #92]	@ (8002f90 <writeCHARSEG+0x2dc>)
 8002f32:	6993      	ldr	r3, [r2, #24]
 8002f34:	430b      	orrs	r3, r1
 8002f36:	6193      	str	r3, [r2, #24]
        LEDc_ON();
 8002f38:	22a0      	movs	r2, #160	@ 0xa0
 8002f3a:	05d2      	lsls	r2, r2, #23
 8002f3c:	6993      	ldr	r3, [r2, #24]
 8002f3e:	313e      	adds	r1, #62	@ 0x3e
 8002f40:	430b      	orrs	r3, r1
 8002f42:	6193      	str	r3, [r2, #24]
        break;
 8002f44:	e721      	b.n	8002d8a <writeCHARSEG+0xd6>
        LEDa_ON();
 8002f46:	23a0      	movs	r3, #160	@ 0xa0
 8002f48:	2180      	movs	r1, #128	@ 0x80
        LEDb_ON();
 8002f4a:	2002      	movs	r0, #2
        LEDa_ON();
 8002f4c:	05db      	lsls	r3, r3, #23
 8002f4e:	699a      	ldr	r2, [r3, #24]
 8002f50:	430a      	orrs	r2, r1
        LEDb_ON();
 8002f52:	490f      	ldr	r1, [pc, #60]	@ (8002f90 <writeCHARSEG+0x2dc>)
        LEDa_ON();
 8002f54:	619a      	str	r2, [r3, #24]
        LEDb_ON();
 8002f56:	698a      	ldr	r2, [r1, #24]
 8002f58:	4302      	orrs	r2, r0
 8002f5a:	618a      	str	r2, [r1, #24]
        LEDc_ON();
 8002f5c:	2140      	movs	r1, #64	@ 0x40
 8002f5e:	699a      	ldr	r2, [r3, #24]
 8002f60:	430a      	orrs	r2, r1
 8002f62:	619a      	str	r2, [r3, #24]
        LEDd_ON();
 8002f64:	699a      	ldr	r2, [r3, #24]
 8002f66:	3920      	subs	r1, #32
 8002f68:	430a      	orrs	r2, r1
 8002f6a:	619a      	str	r2, [r3, #24]
        LEDe_ON();
 8002f6c:	2280      	movs	r2, #128	@ 0x80
 8002f6e:	6999      	ldr	r1, [r3, #24]
 8002f70:	0112      	lsls	r2, r2, #4
 8002f72:	430a      	orrs	r2, r1
 8002f74:	619a      	str	r2, [r3, #24]
        LEDf_ON();
 8002f76:	2280      	movs	r2, #128	@ 0x80
 8002f78:	6999      	ldr	r1, [r3, #24]
 8002f7a:	0092      	lsls	r2, r2, #2
 8002f7c:	430a      	orrs	r2, r1
 8002f7e:	619a      	str	r2, [r3, #24]
        break;
 8002f80:	e703      	b.n	8002d8a <writeCHARSEG+0xd6>
        LEDdp_ON();
 8002f82:	2108      	movs	r1, #8
 8002f84:	4a02      	ldr	r2, [pc, #8]	@ (8002f90 <writeCHARSEG+0x2dc>)
 8002f86:	6993      	ldr	r3, [r2, #24]
 8002f88:	430b      	orrs	r3, r1
 8002f8a:	6193      	str	r3, [r2, #24]
        break;
 8002f8c:	e6fd      	b.n	8002d8a <writeCHARSEG+0xd6>
 8002f8e:	46c0      	nop			@ (mov r8, r8)
 8002f90:	50000400 	.word	0x50000400
 8002f94:	08003d40 	.word	0x08003d40

08002f98 <testMainLamp>:
{
 8002f98:	b5f0      	push	{r4, r5, r6, r7, lr}
 8002f9a:	46d6      	mov	lr, sl
 8002f9c:	464f      	mov	r7, r9
 8002f9e:	4646      	mov	r6, r8
    for(int i = 0; i<4; i++){
 8002fa0:	2400      	movs	r4, #0
{
 8002fa2:	b5c0      	push	{r6, r7, lr}
    writeCHARSEG(' ', i);
 8002fa4:	b2e1      	uxtb	r1, r4
 8002fa6:	2020      	movs	r0, #32
    for(int i = 0; i<4; i++){
 8002fa8:	3401      	adds	r4, #1
    writeCHARSEG(' ', i);
 8002faa:	f7ff fe83 	bl	8002cb4 <writeCHARSEG>
    for(int i = 0; i<4; i++){
 8002fae:	2c04      	cmp	r4, #4
 8002fb0:	d1f8      	bne.n	8002fa4 <testMainLamp+0xc>
    pinEN_ON();
 8002fb2:	2380      	movs	r3, #128	@ 0x80
 8002fb4:	4a34      	ldr	r2, [pc, #208]	@ (8003088 <testMainLamp+0xf0>)
 8002fb6:	021b      	lsls	r3, r3, #8
 8002fb8:	6991      	ldr	r1, [r2, #24]
        (SysTimer_ms % 1000 < 500) ? LEDl1l2_ON() : LEDl1l2_OFF();
 8002fba:	25a0      	movs	r5, #160	@ 0xa0
    pinEN_ON();
 8002fbc:	430b      	orrs	r3, r1
    SET_BIT(TIM21->CR1, TIM_CR1_CEN); //  
 8002fbe:	2101      	movs	r1, #1
    pinEN_ON();
 8002fc0:	6193      	str	r3, [r2, #24]
    SET_BIT(TIM21->CR1, TIM_CR1_CEN); //  
 8002fc2:	4a32      	ldr	r2, [pc, #200]	@ (800308c <testMainLamp+0xf4>)
 8002fc4:	4c32      	ldr	r4, [pc, #200]	@ (8003090 <testMainLamp+0xf8>)
 8002fc6:	6813      	ldr	r3, [r2, #0]
        (SysTimer_ms % 1000 < 500) ? LEDl1l2_ON() : LEDl1l2_OFF();
 8002fc8:	05ed      	lsls	r5, r5, #23
    SET_BIT(TIM21->CR1, TIM_CR1_CEN); //  
 8002fca:	430b      	orrs	r3, r1
 8002fcc:	6013      	str	r3, [r2, #0]
        (SysTimer_ms % 1000 < 500) ? LEDl1l2_ON() : LEDl1l2_OFF();
 8002fce:	23fa      	movs	r3, #250	@ 0xfa
 8002fd0:	005b      	lsls	r3, r3, #1
 8002fd2:	4698      	mov	r8, r3
 8002fd4:	2380      	movs	r3, #128	@ 0x80
 8002fd6:	04db      	lsls	r3, r3, #19
 8002fd8:	469a      	mov	sl, r3
 8002fda:	2380      	movs	r3, #128	@ 0x80
 8002fdc:	00db      	lsls	r3, r3, #3
 8002fde:	4699      	mov	r9, r3
 8002fe0:	26fa      	movs	r6, #250	@ 0xfa
    while (SysTimer_ms % 6000 != 5999)
 8002fe2:	4f2c      	ldr	r7, [pc, #176]	@ (8003094 <testMainLamp+0xfc>)
        (SysTimer_ms % 1000 < 500) ? LEDl1l2_ON() : LEDl1l2_OFF();
 8002fe4:	00b6      	lsls	r6, r6, #2
 8002fe6:	e026      	b.n	8003036 <testMainLamp+0x9e>
 8002fe8:	464a      	mov	r2, r9
 8002fea:	4313      	orrs	r3, r2
 8002fec:	61ab      	str	r3, [r5, #24]
        if (SysTimer_ms % 5000 < 1000)
 8002fee:	6820      	ldr	r0, [r4, #0]
 8002ff0:	4929      	ldr	r1, [pc, #164]	@ (8003098 <testMainLamp+0x100>)
 8002ff2:	f7fd f90f 	bl	8000214 <__aeabi_uidivmod>
 8002ff6:	42b1      	cmp	r1, r6
 8002ff8:	d202      	bcs.n	8003000 <testMainLamp+0x68>
            TIM21->CCR1 = 0;
 8002ffa:	2200      	movs	r2, #0
 8002ffc:	4b23      	ldr	r3, [pc, #140]	@ (800308c <testMainLamp+0xf4>)
 8002ffe:	635a      	str	r2, [r3, #52]	@ 0x34
        if (SysTimer_ms % 6000 == 1500)
 8003000:	6820      	ldr	r0, [r4, #0]
 8003002:	4926      	ldr	r1, [pc, #152]	@ (800309c <testMainLamp+0x104>)
 8003004:	f7fd f906 	bl	8000214 <__aeabi_uidivmod>
 8003008:	4b25      	ldr	r3, [pc, #148]	@ (80030a0 <testMainLamp+0x108>)
 800300a:	4299      	cmp	r1, r3
 800300c:	d101      	bne.n	8003012 <testMainLamp+0x7a>
            TIM21->CCR1 = 1000;
 800300e:	4b1f      	ldr	r3, [pc, #124]	@ (800308c <testMainLamp+0xf4>)
 8003010:	635e      	str	r6, [r3, #52]	@ 0x34
        if (SysTimer_ms % 6000 == 3000)
 8003012:	6820      	ldr	r0, [r4, #0]
 8003014:	4921      	ldr	r1, [pc, #132]	@ (800309c <testMainLamp+0x104>)
 8003016:	f7fd f8fd 	bl	8000214 <__aeabi_uidivmod>
 800301a:	4b22      	ldr	r3, [pc, #136]	@ (80030a4 <testMainLamp+0x10c>)
 800301c:	4299      	cmp	r1, r3
 800301e:	d103      	bne.n	8003028 <testMainLamp+0x90>
            TIM21->CCR1 = 4000;
 8003020:	22fa      	movs	r2, #250	@ 0xfa
 8003022:	4b1a      	ldr	r3, [pc, #104]	@ (800308c <testMainLamp+0xf4>)
 8003024:	0112      	lsls	r2, r2, #4
 8003026:	635a      	str	r2, [r3, #52]	@ 0x34
        if (SysTimer_ms % 6000 == 4500)
 8003028:	6820      	ldr	r0, [r4, #0]
 800302a:	491c      	ldr	r1, [pc, #112]	@ (800309c <testMainLamp+0x104>)
 800302c:	f7fd f8f2 	bl	8000214 <__aeabi_uidivmod>
 8003030:	4b1d      	ldr	r3, [pc, #116]	@ (80030a8 <testMainLamp+0x110>)
 8003032:	4299      	cmp	r1, r3
 8003034:	d023      	beq.n	800307e <testMainLamp+0xe6>
    while (SysTimer_ms % 6000 != 5999)
 8003036:	6820      	ldr	r0, [r4, #0]
 8003038:	4918      	ldr	r1, [pc, #96]	@ (800309c <testMainLamp+0x104>)
 800303a:	f7fd f8eb 	bl	8000214 <__aeabi_uidivmod>
 800303e:	42b9      	cmp	r1, r7
 8003040:	d00b      	beq.n	800305a <testMainLamp+0xc2>
        (SysTimer_ms % 1000 < 500) ? LEDl1l2_ON() : LEDl1l2_OFF();
 8003042:	21fa      	movs	r1, #250	@ 0xfa
 8003044:	6820      	ldr	r0, [r4, #0]
 8003046:	0089      	lsls	r1, r1, #2
 8003048:	f7fd f8e4 	bl	8000214 <__aeabi_uidivmod>
 800304c:	69ab      	ldr	r3, [r5, #24]
 800304e:	4541      	cmp	r1, r8
 8003050:	d3ca      	bcc.n	8002fe8 <testMainLamp+0x50>
 8003052:	4652      	mov	r2, sl
 8003054:	4313      	orrs	r3, r2
 8003056:	61ab      	str	r3, [r5, #24]
 8003058:	e7c9      	b.n	8002fee <testMainLamp+0x56>
    pinEN_OFF();
 800305a:	2380      	movs	r3, #128	@ 0x80
 800305c:	4a0a      	ldr	r2, [pc, #40]	@ (8003088 <testMainLamp+0xf0>)
 800305e:	061b      	lsls	r3, r3, #24
 8003060:	6991      	ldr	r1, [r2, #24]
 8003062:	430b      	orrs	r3, r1
    CLEAR_BIT(TIM21->CR1, TIM_CR1_CEN); //  
 8003064:	2101      	movs	r1, #1
    pinEN_OFF();
 8003066:	6193      	str	r3, [r2, #24]
    CLEAR_BIT(TIM21->CR1, TIM_CR1_CEN); //  
 8003068:	4b08      	ldr	r3, [pc, #32]	@ (800308c <testMainLamp+0xf4>)
 800306a:	681a      	ldr	r2, [r3, #0]
 800306c:	438a      	bics	r2, r1
 800306e:	601a      	str	r2, [r3, #0]
    TIM21->CCR1 = 0;
 8003070:	2200      	movs	r2, #0
 8003072:	635a      	str	r2, [r3, #52]	@ 0x34
}
 8003074:	bce0      	pop	{r5, r6, r7}
 8003076:	46ba      	mov	sl, r7
 8003078:	46b1      	mov	r9, r6
 800307a:	46a8      	mov	r8, r5
 800307c:	bdf0      	pop	{r4, r5, r6, r7, pc}
            TIM21->CCR1 = 6000;
 800307e:	4b03      	ldr	r3, [pc, #12]	@ (800308c <testMainLamp+0xf4>)
 8003080:	4a06      	ldr	r2, [pc, #24]	@ (800309c <testMainLamp+0x104>)
 8003082:	635a      	str	r2, [r3, #52]	@ 0x34
 8003084:	e7ac      	b.n	8002fe0 <testMainLamp+0x48>
 8003086:	46c0      	nop			@ (mov r8, r8)
 8003088:	50000800 	.word	0x50000800
 800308c:	40010800 	.word	0x40010800
 8003090:	200001b8 	.word	0x200001b8
 8003094:	0000176f 	.word	0x0000176f
 8003098:	00001388 	.word	0x00001388
 800309c:	00001770 	.word	0x00001770
 80030a0:	000005dc 	.word	0x000005dc
 80030a4:	00000bb8 	.word	0x00000bb8
 80030a8:	00001194 	.word	0x00001194

080030ac <setTimeNow>:
    return (flagEnterButtonLong) ? 0 : 1;
    //   ,      
}

void setTimeNow()
{
 80030ac:	b5f0      	push	{r4, r5, r6, r7, lr}
    RTC->WPR = 0xCA; // Step 1
 80030ae:	23ca      	movs	r3, #202	@ 0xca
{
 80030b0:	46d6      	mov	lr, sl
 80030b2:	464f      	mov	r7, r9
 80030b4:	4646      	mov	r6, r8
    RTC->WPR = 0x53; // Step 2
    //    RTC

    SET_BIT(RTC->ISR, RTC_ISR_INIT);
 80030b6:	2280      	movs	r2, #128	@ 0x80
    RTC->WPR = 0xCA; // Step 1
 80030b8:	4c44      	ldr	r4, [pc, #272]	@ (80031cc <setTimeNow+0x120>)
{
 80030ba:	b5c0      	push	{r6, r7, lr}
    RTC->WPR = 0xCA; // Step 1
 80030bc:	6263      	str	r3, [r4, #36]	@ 0x24
    RTC->WPR = 0x53; // Step 2
 80030be:	3b77      	subs	r3, #119	@ 0x77
 80030c0:	6263      	str	r3, [r4, #36]	@ 0x24
    SET_BIT(RTC->ISR, RTC_ISR_INIT);
 80030c2:	68e3      	ldr	r3, [r4, #12]
 80030c4:	4313      	orrs	r3, r2
 80030c6:	60e3      	str	r3, [r4, #12]
    while (!(READ_BIT(RTC->ISR, RTC_ISR_INITF)))
 80030c8:	3a40      	subs	r2, #64	@ 0x40
 80030ca:	68e3      	ldr	r3, [r4, #12]
 80030cc:	421a      	tst	r2, r3
 80030ce:	d0fc      	beq.n	80030ca <setTimeNow+0x1e>
    {
    }
    //    

    MODIFY_REG(RTC->TR,
 80030d0:	4e3f      	ldr	r6, [pc, #252]	@ (80031d0 <setTimeNow+0x124>)
 80030d2:	210a      	movs	r1, #10
 80030d4:	7ef3      	ldrb	r3, [r6, #27]
 80030d6:	6827      	ldr	r7, [r4, #0]
 80030d8:	469a      	mov	sl, r3
 80030da:	2325      	movs	r3, #37	@ 0x25
 80030dc:	5cf3      	ldrb	r3, [r6, r3]
 80030de:	4650      	mov	r0, sl
 80030e0:	4699      	mov	r9, r3
 80030e2:	232f      	movs	r3, #47	@ 0x2f
 80030e4:	5cf3      	ldrb	r3, [r6, r3]
 80030e6:	4698      	mov	r8, r3
 80030e8:	f7fd f80e 	bl	8000108 <__udivsi3>
 80030ec:	210a      	movs	r1, #10
 80030ee:	b2c5      	uxtb	r5, r0
 80030f0:	4650      	mov	r0, sl
 80030f2:	f7fd f88f 	bl	8000214 <__aeabi_uidivmod>
 80030f6:	b2c9      	uxtb	r1, r1
 80030f8:	0409      	lsls	r1, r1, #16
 80030fa:	052d      	lsls	r5, r5, #20
 80030fc:	4640      	mov	r0, r8
 80030fe:	430d      	orrs	r5, r1
 8003100:	210a      	movs	r1, #10
 8003102:	f7fd f887 	bl	8000214 <__aeabi_uidivmod>
 8003106:	b2c9      	uxtb	r1, r1
 8003108:	4648      	mov	r0, r9
 800310a:	430d      	orrs	r5, r1
 800310c:	210a      	movs	r1, #10
 800310e:	f7fc fffb 	bl	8000108 <__udivsi3>
 8003112:	b2c0      	uxtb	r0, r0
 8003114:	0300      	lsls	r0, r0, #12
 8003116:	4305      	orrs	r5, r0
 8003118:	210a      	movs	r1, #10
 800311a:	4648      	mov	r0, r9
 800311c:	f7fd f87a 	bl	8000214 <__aeabi_uidivmod>
 8003120:	b2c9      	uxtb	r1, r1
 8003122:	0209      	lsls	r1, r1, #8
 8003124:	4640      	mov	r0, r8
 8003126:	430d      	orrs	r5, r1
 8003128:	210a      	movs	r1, #10
 800312a:	f7fc ffed 	bl	8000108 <__udivsi3>
 800312e:	4b29      	ldr	r3, [pc, #164]	@ (80031d4 <setTimeNow+0x128>)
 8003130:	b2c0      	uxtb	r0, r0
 8003132:	401f      	ands	r7, r3
                   (menu[2].value % 10 << RTC_TR_HU_Pos) |  //  
                   (menu[3].value / 10 << RTC_TR_MNT_Pos) | //  
                   (menu[3].value % 10 << RTC_TR_MNU_Pos) | //  
                   (menu[4].value / 10 << RTC_TR_ST_Pos) |  //  
                   (menu[4].value % 10 << RTC_TR_SU_Pos));  //  
    MODIFY_REG(RTC->DR,
 8003134:	234d      	movs	r3, #77	@ 0x4d
    MODIFY_REG(RTC->TR,
 8003136:	0100      	lsls	r0, r0, #4
 8003138:	4305      	orrs	r5, r0
 800313a:	433d      	orrs	r5, r7
 800313c:	6025      	str	r5, [r4, #0]
    MODIFY_REG(RTC->DR,
 800313e:	5cf3      	ldrb	r3, [r6, r3]
 8003140:	210a      	movs	r1, #10
 8003142:	469a      	mov	sl, r3
 8003144:	2343      	movs	r3, #67	@ 0x43
 8003146:	5cf3      	ldrb	r3, [r6, r3]
 8003148:	6867      	ldr	r7, [r4, #4]
 800314a:	4699      	mov	r9, r3
 800314c:	2339      	movs	r3, #57	@ 0x39
 800314e:	5cf3      	ldrb	r3, [r6, r3]
 8003150:	4698      	mov	r8, r3
 8003152:	2357      	movs	r3, #87	@ 0x57
 8003154:	4640      	mov	r0, r8
 8003156:	5cf5      	ldrb	r5, [r6, r3]
 8003158:	f7fd f85c 	bl	8000214 <__aeabi_uidivmod>
 800315c:	036d      	lsls	r5, r5, #13
 800315e:	b2c9      	uxtb	r1, r1
 8003160:	4650      	mov	r0, sl
 8003162:	430d      	orrs	r5, r1
 8003164:	210a      	movs	r1, #10
 8003166:	f7fc ffcf 	bl	8000108 <__udivsi3>
 800316a:	b2c0      	uxtb	r0, r0
 800316c:	0500      	lsls	r0, r0, #20
 800316e:	4305      	orrs	r5, r0
 8003170:	210a      	movs	r1, #10
 8003172:	4650      	mov	r0, sl
 8003174:	f7fd f84e 	bl	8000214 <__aeabi_uidivmod>
 8003178:	b2c9      	uxtb	r1, r1
 800317a:	0409      	lsls	r1, r1, #16
 800317c:	4648      	mov	r0, r9
 800317e:	430d      	orrs	r5, r1
 8003180:	210a      	movs	r1, #10
 8003182:	f7fc ffc1 	bl	8000108 <__udivsi3>
 8003186:	b2c0      	uxtb	r0, r0
 8003188:	0300      	lsls	r0, r0, #12
 800318a:	4305      	orrs	r5, r0
 800318c:	210a      	movs	r1, #10
 800318e:	4648      	mov	r0, r9
 8003190:	f7fd f840 	bl	8000214 <__aeabi_uidivmod>
 8003194:	b2c9      	uxtb	r1, r1
 8003196:	0209      	lsls	r1, r1, #8
 8003198:	4640      	mov	r0, r8
 800319a:	430d      	orrs	r5, r1
 800319c:	210a      	movs	r1, #10
 800319e:	f7fc ffb3 	bl	8000108 <__udivsi3>
                   (menu[5].value / 10 << RTC_DR_DT_Pos) | //  
                   (menu[5].value % 10 << RTC_DR_DU_Pos) | //  
                   (menu[8].value << RTC_DR_WDU_Pos));     //  
    //        RTC

    CLEAR_BIT(RTC->ISR, RTC_ISR_INIT);
 80031a2:	2280      	movs	r2, #128	@ 0x80
    MODIFY_REG(RTC->DR,
 80031a4:	4b0c      	ldr	r3, [pc, #48]	@ (80031d8 <setTimeNow+0x12c>)
 80031a6:	b2c0      	uxtb	r0, r0
 80031a8:	0100      	lsls	r0, r0, #4
 80031aa:	401f      	ands	r7, r3
 80031ac:	4305      	orrs	r5, r0
 80031ae:	433d      	orrs	r5, r7
 80031b0:	6065      	str	r5, [r4, #4]
    CLEAR_BIT(RTC->ISR, RTC_ISR_INIT);
 80031b2:	68e3      	ldr	r3, [r4, #12]
 80031b4:	4393      	bics	r3, r2
 80031b6:	60e3      	str	r3, [r4, #12]
    //    

    RTC->WPR = 0xFE; //       RTC
 80031b8:	23fe      	movs	r3, #254	@ 0xfe
 80031ba:	6263      	str	r3, [r4, #36]	@ 0x24
    RTC->WPR = 0x64; //  
 80031bc:	3b9a      	subs	r3, #154	@ 0x9a
 80031be:	6263      	str	r3, [r4, #36]	@ 0x24
}
 80031c0:	bce0      	pop	{r5, r6, r7}
 80031c2:	46ba      	mov	sl, r7
 80031c4:	46b1      	mov	r9, r6
 80031c6:	46a8      	mov	r8, r5
 80031c8:	bdf0      	pop	{r4, r5, r6, r7, pc}
 80031ca:	46c0      	nop			@ (mov r8, r8)
 80031cc:	40002800 	.word	0x40002800
 80031d0:	20000000 	.word	0x20000000
 80031d4:	ffc08080 	.word	0xffc08080
 80031d8:	ff0000c0 	.word	0xff0000c0

080031dc <getNearMenuIndexByID>:
    }
    return -1; //     ,  -1
}

uint8_t getNearMenuIndexByID(int8_t parentid, int8_t id, int8_t side)
{
 80031dc:	b5f0      	push	{r4, r5, r6, r7, lr}
    int8_t prevID = -1;   //      
    int8_t nextID = -1;   //      
    int8_t actualID = -1; //      

    int8_t firstID = -1; //      
    int8_t lastID = -1;  //      
 80031de:	2601      	movs	r6, #1
{
 80031e0:	4647      	mov	r7, r8
 80031e2:	46ce      	mov	lr, r9
    int8_t lastID = -1;  //      
 80031e4:	4276      	negs	r6, r6
{
 80031e6:	4690      	mov	r8, r2
 80031e8:	b580      	push	{r7, lr}

    for (uint8_t i = 0; i < menuArraySize; i++)
 80031ea:	2300      	movs	r3, #0
    int8_t firstID = -1; //      
 80031ec:	0037      	movs	r7, r6
    int8_t actualID = -1; //      
 80031ee:	0032      	movs	r2, r6
    int8_t nextID = -1;   //      
 80031f0:	46b4      	mov	ip, r6
    int8_t prevID = -1;   //      
 80031f2:	46b1      	mov	r9, r6
 80031f4:	4d20      	ldr	r5, [pc, #128]	@ (8003278 <getNearMenuIndexByID+0x9c>)
 80031f6:	e004      	b.n	8003202 <getNearMenuIndexByID+0x26>
    for (uint8_t i = 0; i < menuArraySize; i++)
 80031f8:	3301      	adds	r3, #1
 80031fa:	b2db      	uxtb	r3, r3
 80031fc:	350a      	adds	r5, #10
 80031fe:	2b1f      	cmp	r3, #31
 8003200:	d025      	beq.n	800324e <getNearMenuIndexByID+0x72>
    {
        if (menu[i].parentid == parentid)
 8003202:	2401      	movs	r4, #1
 8003204:	572c      	ldrsb	r4, [r5, r4]
 8003206:	4284      	cmp	r4, r0
 8003208:	d1f6      	bne.n	80031f8 <getNearMenuIndexByID+0x1c>
        { //       ID
            if (firstID == -1)
                firstID = i; // '   
 800320a:	b25e      	sxtb	r6, r3
            if (firstID == -1)
 800320c:	1c7c      	adds	r4, r7, #1
 800320e:	d100      	bne.n	8003212 <getNearMenuIndexByID+0x36>
                firstID = i; // '   
 8003210:	0037      	movs	r7, r6

            if (menu[i].id == id)
 8003212:	2400      	movs	r4, #0
 8003214:	572c      	ldrsb	r4, [r5, r4]
 8003216:	428c      	cmp	r4, r1
 8003218:	d013      	beq.n	8003242 <getNearMenuIndexByID+0x66>
            {
                actualID = i; // '   
            }
            else
            {
                if (actualID == -1)
 800321a:	1c54      	adds	r4, r2, #1
 800321c:	d027      	beq.n	800326e <getNearMenuIndexByID+0x92>
                { //     ,   
                    prevID = i;
                }
                else if (actualID != -1 && nextID == -1)
 800321e:	4664      	mov	r4, ip
 8003220:	3401      	adds	r4, #1
 8003222:	d100      	bne.n	8003226 <getNearMenuIndexByID+0x4a>
                { //     ,   
                    nextID = i;
 8003224:	46b4      	mov	ip, r6
    for (uint8_t i = 0; i < menuArraySize; i++)
 8003226:	3301      	adds	r3, #1
 8003228:	b2db      	uxtb	r3, r3
 800322a:	350a      	adds	r5, #10
 800322c:	2b1f      	cmp	r3, #31
 800322e:	d00e      	beq.n	800324e <getNearMenuIndexByID+0x72>
        if (menu[i].parentid == parentid)
 8003230:	2401      	movs	r4, #1
 8003232:	572c      	ldrsb	r4, [r5, r4]
 8003234:	4284      	cmp	r4, r0
 8003236:	d1df      	bne.n	80031f8 <getNearMenuIndexByID+0x1c>
            if (menu[i].id == id)
 8003238:	2400      	movs	r4, #0
 800323a:	572c      	ldrsb	r4, [r5, r4]
                firstID = i; // '   
 800323c:	b25e      	sxtb	r6, r3
            if (menu[i].id == id)
 800323e:	428c      	cmp	r4, r1
 8003240:	d1eb      	bne.n	800321a <getNearMenuIndexByID+0x3e>
    for (uint8_t i = 0; i < menuArraySize; i++)
 8003242:	3301      	adds	r3, #1
 8003244:	b2db      	uxtb	r3, r3
                actualID = i; // '   
 8003246:	0032      	movs	r2, r6
    for (uint8_t i = 0; i < menuArraySize; i++)
 8003248:	350a      	adds	r5, #10
 800324a:	2b1f      	cmp	r3, #31
 800324c:	d1f0      	bne.n	8003230 <getNearMenuIndexByID+0x54>
            }
            lastID = i; //    - 
        }
    }

    if (nextID == -1)
 800324e:	4663      	mov	r3, ip
 8003250:	3301      	adds	r3, #1
 8003252:	d000      	beq.n	8003256 <getNearMenuIndexByID+0x7a>
 8003254:	4667      	mov	r7, ip
        nextID = firstID; //     -    
    if (prevID == -1)
 8003256:	464b      	mov	r3, r9
 8003258:	3301      	adds	r3, #1
 800325a:	d000      	beq.n	800325e <getNearMenuIndexByID+0x82>
 800325c:	464e      	mov	r6, r9
        prevID = lastID; //     -    
    if (side == -1)
 800325e:	4643      	mov	r3, r8
 8003260:	3301      	adds	r3, #1
 8003262:	d006      	beq.n	8003272 <getNearMenuIndexByID+0x96>
        return prevID; //     ,   
    else
        return nextID;
 8003264:	b2f8      	uxtb	r0, r7
    return -1;
}
 8003266:	bcc0      	pop	{r6, r7}
 8003268:	46b9      	mov	r9, r7
 800326a:	46b0      	mov	r8, r6
 800326c:	bdf0      	pop	{r4, r5, r6, r7, pc}
                    prevID = i;
 800326e:	46b1      	mov	r9, r6
 8003270:	e7d9      	b.n	8003226 <getNearMenuIndexByID+0x4a>
        return prevID; //     ,   
 8003272:	b2f0      	uxtb	r0, r6
 8003274:	e7f7      	b.n	8003266 <getNearMenuIndexByID+0x8a>
 8003276:	46c0      	nop			@ (mov r8, r8)
 8003278:	20000000 	.word	0x20000000

0800327c <interaptTIMDebounce>:
void interaptTIMDebounce(void)
{
    //    

    // *26 P_5.1 debounceTime
	ENABLE_BUTTON_INTERRUPT(DecrementButtonDebounce, EXTI_IMR_IM0);
 800327c:	2120      	movs	r1, #32
{
 800327e:	b570      	push	{r4, r5, r6, lr}
	ENABLE_BUTTON_INTERRUPT(DecrementButtonDebounce, EXTI_IMR_IM0);
 8003280:	4a21      	ldr	r2, [pc, #132]	@ (8003308 <interaptTIMDebounce+0x8c>)
 8003282:	31ff      	adds	r1, #255	@ 0xff
 8003284:	4d21      	ldr	r5, [pc, #132]	@ (800330c <interaptTIMDebounce+0x90>)
 8003286:	5c52      	ldrb	r2, [r2, r1]
 8003288:	4921      	ldr	r1, [pc, #132]	@ (8003310 <interaptTIMDebounce+0x94>)
 800328a:	682b      	ldr	r3, [r5, #0]
 800328c:	8809      	ldrh	r1, [r1, #0]
 800328e:	1a5b      	subs	r3, r3, r1
 8003290:	4293      	cmp	r3, r2
 8003292:	d904      	bls.n	800329e <interaptTIMDebounce+0x22>
 8003294:	2101      	movs	r1, #1
 8003296:	4b1f      	ldr	r3, [pc, #124]	@ (8003314 <interaptTIMDebounce+0x98>)
 8003298:	6818      	ldr	r0, [r3, #0]
 800329a:	4201      	tst	r1, r0
 800329c:	d02e      	beq.n	80032fc <interaptTIMDebounce+0x80>
	ENABLE_BUTTON_INTERRUPT(EnterButtonDebounce, EXTI_IMR_IM1);
 800329e:	491e      	ldr	r1, [pc, #120]	@ (8003318 <interaptTIMDebounce+0x9c>)
 80032a0:	682b      	ldr	r3, [r5, #0]
 80032a2:	8809      	ldrh	r1, [r1, #0]
 80032a4:	1a5b      	subs	r3, r3, r1
 80032a6:	429a      	cmp	r2, r3
 80032a8:	d204      	bcs.n	80032b4 <interaptTIMDebounce+0x38>
 80032aa:	2102      	movs	r1, #2
 80032ac:	4b19      	ldr	r3, [pc, #100]	@ (8003314 <interaptTIMDebounce+0x98>)
 80032ae:	6818      	ldr	r0, [r3, #0]
 80032b0:	4201      	tst	r1, r0
 80032b2:	d01f      	beq.n	80032f4 <interaptTIMDebounce+0x78>
	ENABLE_BUTTON_INTERRUPT(IncrementButtonDebounce, EXTI_IMR_IM2);
 80032b4:	4919      	ldr	r1, [pc, #100]	@ (800331c <interaptTIMDebounce+0xa0>)
 80032b6:	682b      	ldr	r3, [r5, #0]
 80032b8:	8809      	ldrh	r1, [r1, #0]
 80032ba:	1a5b      	subs	r3, r3, r1
 80032bc:	429a      	cmp	r2, r3
 80032be:	d204      	bcs.n	80032ca <interaptTIMDebounce+0x4e>
 80032c0:	2204      	movs	r2, #4
 80032c2:	4b14      	ldr	r3, [pc, #80]	@ (8003314 <interaptTIMDebounce+0x98>)
 80032c4:	6819      	ldr	r1, [r3, #0]
 80032c6:	420a      	tst	r2, r1
 80032c8:	d010      	beq.n	80032ec <interaptTIMDebounce+0x70>

    if ((flagDecrementButtonDown == 0) && (flagEnterButtonDown == 0) && (flagIncrementButtonDown == 0) && SysTimer_ms % 10000 == 9999)
 80032ca:	4a15      	ldr	r2, [pc, #84]	@ (8003320 <interaptTIMDebounce+0xa4>)
 80032cc:	4b15      	ldr	r3, [pc, #84]	@ (8003324 <interaptTIMDebounce+0xa8>)
 80032ce:	7814      	ldrb	r4, [r2, #0]
 80032d0:	781b      	ldrb	r3, [r3, #0]
 80032d2:	431c      	orrs	r4, r3
 80032d4:	4b14      	ldr	r3, [pc, #80]	@ (8003328 <interaptTIMDebounce+0xac>)
 80032d6:	781b      	ldrb	r3, [r3, #0]
 80032d8:	431c      	orrs	r4, r3
 80032da:	d106      	bne.n	80032ea <interaptTIMDebounce+0x6e>
 80032dc:	6828      	ldr	r0, [r5, #0]
 80032de:	4913      	ldr	r1, [pc, #76]	@ (800332c <interaptTIMDebounce+0xb0>)
 80032e0:	f7fc ff98 	bl	8000214 <__aeabi_uidivmod>
 80032e4:	4b12      	ldr	r3, [pc, #72]	@ (8003330 <interaptTIMDebounce+0xb4>)
 80032e6:	4299      	cmp	r1, r3
 80032e8:	d00c      	beq.n	8003304 <interaptTIMDebounce+0x88>
    {
        SysTimer_ms = 0;
        //           ,    
    }
}
 80032ea:	bd70      	pop	{r4, r5, r6, pc}
	ENABLE_BUTTON_INTERRUPT(IncrementButtonDebounce, EXTI_IMR_IM2);
 80032ec:	6819      	ldr	r1, [r3, #0]
 80032ee:	430a      	orrs	r2, r1
 80032f0:	601a      	str	r2, [r3, #0]
 80032f2:	e7ea      	b.n	80032ca <interaptTIMDebounce+0x4e>
	ENABLE_BUTTON_INTERRUPT(EnterButtonDebounce, EXTI_IMR_IM1);
 80032f4:	6818      	ldr	r0, [r3, #0]
 80032f6:	4301      	orrs	r1, r0
 80032f8:	6019      	str	r1, [r3, #0]
 80032fa:	e7db      	b.n	80032b4 <interaptTIMDebounce+0x38>
	ENABLE_BUTTON_INTERRUPT(DecrementButtonDebounce, EXTI_IMR_IM0);
 80032fc:	6818      	ldr	r0, [r3, #0]
 80032fe:	4301      	orrs	r1, r0
 8003300:	6019      	str	r1, [r3, #0]
 8003302:	e7cc      	b.n	800329e <interaptTIMDebounce+0x22>
        SysTimer_ms = 0;
 8003304:	602c      	str	r4, [r5, #0]
}
 8003306:	e7f0      	b.n	80032ea <interaptTIMDebounce+0x6e>
 8003308:	20000000 	.word	0x20000000
 800330c:	200001b8 	.word	0x200001b8
 8003310:	200001cc 	.word	0x200001cc
 8003314:	40010400 	.word	0x40010400
 8003318:	200001ca 	.word	0x200001ca
 800331c:	200001ce 	.word	0x200001ce
 8003320:	200001c8 	.word	0x200001c8
 8003324:	200001c7 	.word	0x200001c7
 8003328:	200001c9 	.word	0x200001c9
 800332c:	00002710 	.word	0x00002710
 8003330:	0000270f 	.word	0x0000270f

08003334 <Clock>:
{
 8003334:	b5f0      	push	{r4, r5, r6, r7, lr}
 8003336:	46c6      	mov	lr, r8
    return ((hoursBCD >> 4) & 0xF) * 10 + (hoursBCD & 0xF);
 8003338:	2403      	movs	r4, #3
 800333a:	270f      	movs	r7, #15
{
 800333c:	b500      	push	{lr}
    interaptTIMDebounce();
 800333e:	f7ff ff9d 	bl	800327c <interaptTIMDebounce>
    uint8_t hoursBCD = ((READ_BIT(RTC->TR, RTC_TR_HT | RTC_TR_HU)) >> RTC_TR_HU_Pos) & 0xFF;
 8003342:	4b81      	ldr	r3, [pc, #516]	@ (8003548 <Clock+0x214>)
    tmpClock[0] = intToChar(hoursDecimal() / 10);
 8003344:	210a      	movs	r1, #10
    uint8_t hoursBCD = ((READ_BIT(RTC->TR, RTC_TR_HT | RTC_TR_HU)) >> RTC_TR_HU_Pos) & 0xFF;
 8003346:	4698      	mov	r8, r3
 8003348:	681a      	ldr	r2, [r3, #0]
 800334a:	0c12      	lsrs	r2, r2, #16
 800334c:	b2d2      	uxtb	r2, r2
    return ((hoursBCD >> 4) & 0xF) * 10 + (hoursBCD & 0xF);
 800334e:	0913      	lsrs	r3, r2, #4
 8003350:	4023      	ands	r3, r4
 8003352:	0098      	lsls	r0, r3, #2
 8003354:	1818      	adds	r0, r3, r0
 8003356:	403a      	ands	r2, r7
 8003358:	0040      	lsls	r0, r0, #1
    tmpClock[0] = intToChar(hoursDecimal() / 10);
 800335a:	1880      	adds	r0, r0, r2
 800335c:	f7fc fed4 	bl	8000108 <__udivsi3>
    uint8_t hoursBCD = ((READ_BIT(RTC->TR, RTC_TR_HT | RTC_TR_HU)) >> RTC_TR_HU_Pos) & 0xFF;
 8003360:	4643      	mov	r3, r8
    tmpClock[0] = intToChar(hoursDecimal() / 10);
 8003362:	4e7a      	ldr	r6, [pc, #488]	@ (800354c <Clock+0x218>)
 8003364:	3030      	adds	r0, #48	@ 0x30
 8003366:	b2c5      	uxtb	r5, r0
 8003368:	7035      	strb	r5, [r6, #0]
    uint8_t hoursBCD = ((READ_BIT(RTC->TR, RTC_TR_HT | RTC_TR_HU)) >> RTC_TR_HU_Pos) & 0xFF;
 800336a:	681b      	ldr	r3, [r3, #0]
    tmpClock[1] = intToChar(hoursDecimal() % 10);
 800336c:	210a      	movs	r1, #10
    uint8_t hoursBCD = ((READ_BIT(RTC->TR, RTC_TR_HT | RTC_TR_HU)) >> RTC_TR_HU_Pos) & 0xFF;
 800336e:	0c1b      	lsrs	r3, r3, #16
 8003370:	b2db      	uxtb	r3, r3
    return ((hoursBCD >> 4) & 0xF) * 10 + (hoursBCD & 0xF);
 8003372:	091a      	lsrs	r2, r3, #4
 8003374:	4014      	ands	r4, r2
 8003376:	00a0      	lsls	r0, r4, #2
 8003378:	1820      	adds	r0, r4, r0
 800337a:	403b      	ands	r3, r7
 800337c:	0040      	lsls	r0, r0, #1
    tmpClock[1] = intToChar(hoursDecimal() % 10);
 800337e:	18c0      	adds	r0, r0, r3
 8003380:	f7fc ff48 	bl	8000214 <__aeabi_uidivmod>
    uint8_t minutesBCD = ((READ_BIT(RTC->TR, RTC_TR_MNT | RTC_TR_MNU)) >> RTC_TR_MNU_Pos) & 0xFF;
 8003384:	4643      	mov	r3, r8
    return ((minutesBCD >> 4) & 0xF) * 10 + (minutesBCD & 0xF);
 8003386:	2407      	movs	r4, #7
    tmpClock[1] = intToChar(hoursDecimal() % 10);
 8003388:	3130      	adds	r1, #48	@ 0x30
 800338a:	7071      	strb	r1, [r6, #1]
    uint8_t minutesBCD = ((READ_BIT(RTC->TR, RTC_TR_MNT | RTC_TR_MNU)) >> RTC_TR_MNU_Pos) & 0xFF;
 800338c:	681a      	ldr	r2, [r3, #0]
    tmpClock[2] = intToChar(minutesDecimal() / 10);
 800338e:	210a      	movs	r1, #10
    uint8_t minutesBCD = ((READ_BIT(RTC->TR, RTC_TR_MNT | RTC_TR_MNU)) >> RTC_TR_MNU_Pos) & 0xFF;
 8003390:	0a12      	lsrs	r2, r2, #8
 8003392:	b2d2      	uxtb	r2, r2
    return ((minutesBCD >> 4) & 0xF) * 10 + (minutesBCD & 0xF);
 8003394:	0913      	lsrs	r3, r2, #4
 8003396:	4023      	ands	r3, r4
 8003398:	0098      	lsls	r0, r3, #2
 800339a:	1818      	adds	r0, r3, r0
 800339c:	403a      	ands	r2, r7
 800339e:	0040      	lsls	r0, r0, #1
    tmpClock[2] = intToChar(minutesDecimal() / 10);
 80033a0:	1880      	adds	r0, r0, r2
 80033a2:	f7fc feb1 	bl	8000108 <__udivsi3>
    uint8_t minutesBCD = ((READ_BIT(RTC->TR, RTC_TR_MNT | RTC_TR_MNU)) >> RTC_TR_MNU_Pos) & 0xFF;
 80033a6:	4643      	mov	r3, r8
    tmpClock[2] = intToChar(minutesDecimal() / 10);
 80033a8:	3030      	adds	r0, #48	@ 0x30
 80033aa:	70b0      	strb	r0, [r6, #2]
    uint8_t minutesBCD = ((READ_BIT(RTC->TR, RTC_TR_MNT | RTC_TR_MNU)) >> RTC_TR_MNU_Pos) & 0xFF;
 80033ac:	681b      	ldr	r3, [r3, #0]
    tmpClock[3] = intToChar(minutesDecimal() % 10);
 80033ae:	210a      	movs	r1, #10
    uint8_t minutesBCD = ((READ_BIT(RTC->TR, RTC_TR_MNT | RTC_TR_MNU)) >> RTC_TR_MNU_Pos) & 0xFF;
 80033b0:	0a1b      	lsrs	r3, r3, #8
 80033b2:	b2db      	uxtb	r3, r3
    return ((minutesBCD >> 4) & 0xF) * 10 + (minutesBCD & 0xF);
 80033b4:	091a      	lsrs	r2, r3, #4
 80033b6:	4014      	ands	r4, r2
 80033b8:	00a2      	lsls	r2, r4, #2
 80033ba:	18a4      	adds	r4, r4, r2
 80033bc:	401f      	ands	r7, r3
 80033be:	0060      	lsls	r0, r4, #1
    tmpClock[3] = intToChar(minutesDecimal() % 10);
 80033c0:	19c0      	adds	r0, r0, r7
 80033c2:	f7fc ff27 	bl	8000214 <__aeabi_uidivmod>
    if (flagDecrementButton || flagEnterButton || flagIncrementButton)
 80033c6:	4b62      	ldr	r3, [pc, #392]	@ (8003550 <Clock+0x21c>)
 80033c8:	4a62      	ldr	r2, [pc, #392]	@ (8003554 <Clock+0x220>)
 80033ca:	781b      	ldrb	r3, [r3, #0]
 80033cc:	7812      	ldrb	r2, [r2, #0]
    tmpClock[3] = intToChar(minutesDecimal() % 10);
 80033ce:	3130      	adds	r1, #48	@ 0x30
    if (flagDecrementButton || flagEnterButton || flagIncrementButton)
 80033d0:	4313      	orrs	r3, r2
 80033d2:	4a61      	ldr	r2, [pc, #388]	@ (8003558 <Clock+0x224>)
    tmpClock[3] = intToChar(minutesDecimal() % 10);
 80033d4:	70f1      	strb	r1, [r6, #3]
    if (flagDecrementButton || flagEnterButton || flagIncrementButton)
 80033d6:	7812      	ldrb	r2, [r2, #0]
 80033d8:	4313      	orrs	r3, r2
 80033da:	d002      	beq.n	80033e2 <Clock+0xae>
        switcHONDisplay = true;
 80033dc:	2201      	movs	r2, #1
 80033de:	4b5f      	ldr	r3, [pc, #380]	@ (800355c <Clock+0x228>)
 80033e0:	701a      	strb	r2, [r3, #0]
    if (SysTimer_ms % menu[26].value == menu[26].value - 1)
 80033e2:	230c      	movs	r3, #12
 80033e4:	4f5e      	ldr	r7, [pc, #376]	@ (8003560 <Clock+0x22c>)
 80033e6:	33ff      	adds	r3, #255	@ 0xff
 80033e8:	5cfb      	ldrb	r3, [r7, r3]
 80033ea:	4c5e      	ldr	r4, [pc, #376]	@ (8003564 <Clock+0x230>)
 80033ec:	4698      	mov	r8, r3
 80033ee:	0019      	movs	r1, r3
 80033f0:	6820      	ldr	r0, [r4, #0]
 80033f2:	f7fc ff0f 	bl	8000214 <__aeabi_uidivmod>
 80033f6:	4643      	mov	r3, r8
 80033f8:	3b01      	subs	r3, #1
 80033fa:	4299      	cmp	r1, r3
 80033fc:	d102      	bne.n	8003404 <Clock+0xd0>
        switcHONDisplay = false;
 80033fe:	2200      	movs	r2, #0
 8003400:	4b56      	ldr	r3, [pc, #344]	@ (800355c <Clock+0x228>)
 8003402:	701a      	strb	r2, [r3, #0]
    return ((hoursBCD >> 4) & 0xF) * 10 + (hoursBCD & 0xF);
 8003404:	2003      	movs	r0, #3
    uint8_t hoursBCD = ((READ_BIT(RTC->TR, RTC_TR_HT | RTC_TR_HU)) >> RTC_TR_HU_Pos) & 0xFF;
 8003406:	4b50      	ldr	r3, [pc, #320]	@ (8003548 <Clock+0x214>)
 8003408:	681a      	ldr	r2, [r3, #0]
 800340a:	4698      	mov	r8, r3
 800340c:	0c12      	lsrs	r2, r2, #16
 800340e:	b2d2      	uxtb	r2, r2
    return ((hoursBCD >> 4) & 0xF) * 10 + (hoursBCD & 0xF);
 8003410:	0913      	lsrs	r3, r2, #4
 8003412:	4003      	ands	r3, r0
 8003414:	0099      	lsls	r1, r3, #2
 8003416:	468c      	mov	ip, r1
 8003418:	210f      	movs	r1, #15
 800341a:	4463      	add	r3, ip
 800341c:	005b      	lsls	r3, r3, #1
 800341e:	400a      	ands	r2, r1
    if (((hoursDecimal() > 5) && (hoursDecimal() < 22)) || switcHONDisplay || menu[25].value == 0)
 8003420:	189b      	adds	r3, r3, r2
 8003422:	2b05      	cmp	r3, #5
 8003424:	d945      	bls.n	80034b2 <Clock+0x17e>
    uint8_t hoursBCD = ((READ_BIT(RTC->TR, RTC_TR_HT | RTC_TR_HU)) >> RTC_TR_HU_Pos) & 0xFF;
 8003426:	4643      	mov	r3, r8
 8003428:	681b      	ldr	r3, [r3, #0]
 800342a:	0c1b      	lsrs	r3, r3, #16
 800342c:	b2db      	uxtb	r3, r3
    return ((hoursBCD >> 4) & 0xF) * 10 + (hoursBCD & 0xF);
 800342e:	091a      	lsrs	r2, r3, #4
 8003430:	4010      	ands	r0, r2
 8003432:	0082      	lsls	r2, r0, #2
 8003434:	1880      	adds	r0, r0, r2
 8003436:	000a      	movs	r2, r1
 8003438:	0040      	lsls	r0, r0, #1
 800343a:	401a      	ands	r2, r3
    if (((hoursDecimal() > 5) && (hoursDecimal() < 22)) || switcHONDisplay || menu[25].value == 0)
 800343c:	1880      	adds	r0, r0, r2
 800343e:	2815      	cmp	r0, #21
 8003440:	d837      	bhi.n	80034b2 <Clock+0x17e>
        (menu[18].value == 1) ? LEDalarm_ON() : LEDalarm_OFF();
 8003442:	23bb      	movs	r3, #187	@ 0xbb
 8003444:	22a0      	movs	r2, #160	@ 0xa0
 8003446:	5cff      	ldrb	r7, [r7, r3]
 8003448:	05d2      	lsls	r2, r2, #23
 800344a:	6991      	ldr	r1, [r2, #24]
 800344c:	2f01      	cmp	r7, #1
 800344e:	d040      	beq.n	80034d2 <Clock+0x19e>
 8003450:	2380      	movs	r3, #128	@ 0x80
 8003452:	045b      	lsls	r3, r3, #17
 8003454:	430b      	orrs	r3, r1
 8003456:	6193      	str	r3, [r2, #24]
        if (SysTimer_ms % 4 == 0 && i == 0)
 8003458:	6823      	ldr	r3, [r4, #0]
 800345a:	079b      	lsls	r3, r3, #30
 800345c:	d03f      	beq.n	80034de <Clock+0x1aa>
        if (SysTimer_ms % 4 == 1)
 800345e:	2303      	movs	r3, #3
 8003460:	6822      	ldr	r2, [r4, #0]
 8003462:	4013      	ands	r3, r2
 8003464:	2b01      	cmp	r3, #1
 8003466:	d045      	beq.n	80034f4 <Clock+0x1c0>
        if (SysTimer_ms % 4 == 2)
 8003468:	2303      	movs	r3, #3
 800346a:	6822      	ldr	r2, [r4, #0]
 800346c:	4013      	ands	r3, r2
 800346e:	2b02      	cmp	r3, #2
 8003470:	d049      	beq.n	8003506 <Clock+0x1d2>
        if (SysTimer_ms % 4 == 3)
 8003472:	6823      	ldr	r3, [r4, #0]
 8003474:	43db      	mvns	r3, r3
 8003476:	079b      	lsls	r3, r3, #30
 8003478:	d04d      	beq.n	8003516 <Clock+0x1e2>
        (SysTimer_ms % 2000 <= 1000) ? LEDl1l2_ON() : LEDl1l2_OFF();
 800347a:	21fa      	movs	r1, #250	@ 0xfa
 800347c:	6820      	ldr	r0, [r4, #0]
 800347e:	00c9      	lsls	r1, r1, #3
 8003480:	f7fc fec8 	bl	8000214 <__aeabi_uidivmod>
 8003484:	23fa      	movs	r3, #250	@ 0xfa
 8003486:	22a0      	movs	r2, #160	@ 0xa0
 8003488:	009b      	lsls	r3, r3, #2
 800348a:	05d2      	lsls	r2, r2, #23
 800348c:	4299      	cmp	r1, r3
 800348e:	d947      	bls.n	8003520 <Clock+0x1ec>
 8003490:	2380      	movs	r3, #128	@ 0x80
 8003492:	6991      	ldr	r1, [r2, #24]
 8003494:	04db      	lsls	r3, r3, #19
 8003496:	430b      	orrs	r3, r1
 8003498:	6193      	str	r3, [r2, #24]
    if (menu[18].value)
 800349a:	2f00      	cmp	r7, #0
 800349c:	d046      	beq.n	800352c <Clock+0x1f8>
 800349e:	f7fe fff1 	bl	8002484 <pwmFP7103.part.0>
    return (flagEnterButtonLong) ? 0 : 1;
 80034a2:	4b31      	ldr	r3, [pc, #196]	@ (8003568 <Clock+0x234>)
 80034a4:	7818      	ldrb	r0, [r3, #0]
 80034a6:	4243      	negs	r3, r0
 80034a8:	4158      	adcs	r0, r3
 80034aa:	b2c0      	uxtb	r0, r0
}
 80034ac:	bc80      	pop	{r7}
 80034ae:	46b8      	mov	r8, r7
 80034b0:	bdf0      	pop	{r4, r5, r6, r7, pc}
    if (((hoursDecimal() > 5) && (hoursDecimal() < 22)) || switcHONDisplay || menu[25].value == 0)
 80034b2:	4b2a      	ldr	r3, [pc, #168]	@ (800355c <Clock+0x228>)
 80034b4:	781b      	ldrb	r3, [r3, #0]
 80034b6:	2b00      	cmp	r3, #0
 80034b8:	d1c3      	bne.n	8003442 <Clock+0x10e>
 80034ba:	2302      	movs	r3, #2
 80034bc:	33ff      	adds	r3, #255	@ 0xff
 80034be:	5cfb      	ldrb	r3, [r7, r3]
 80034c0:	2b00      	cmp	r3, #0
 80034c2:	d1ee      	bne.n	80034a2 <Clock+0x16e>
        (menu[18].value == 1) ? LEDalarm_ON() : LEDalarm_OFF();
 80034c4:	23bb      	movs	r3, #187	@ 0xbb
 80034c6:	22a0      	movs	r2, #160	@ 0xa0
 80034c8:	5cff      	ldrb	r7, [r7, r3]
 80034ca:	05d2      	lsls	r2, r2, #23
 80034cc:	6991      	ldr	r1, [r2, #24]
 80034ce:	2f01      	cmp	r7, #1
 80034d0:	d1be      	bne.n	8003450 <Clock+0x11c>
 80034d2:	3345      	adds	r3, #69	@ 0x45
 80034d4:	430b      	orrs	r3, r1
 80034d6:	6193      	str	r3, [r2, #24]
        if (SysTimer_ms % 4 == 0 && i == 0)
 80034d8:	6823      	ldr	r3, [r4, #0]
 80034da:	079b      	lsls	r3, r3, #30
 80034dc:	d1bf      	bne.n	800345e <Clock+0x12a>
 80034de:	2d30      	cmp	r5, #48	@ 0x30
 80034e0:	d0bd      	beq.n	800345e <Clock+0x12a>
            writeCHARSEG(tmpClock[0], 0);
 80034e2:	2100      	movs	r1, #0
 80034e4:	0028      	movs	r0, r5
 80034e6:	f7ff fbe5 	bl	8002cb4 <writeCHARSEG>
        if (SysTimer_ms % 4 == 1)
 80034ea:	2303      	movs	r3, #3
 80034ec:	6822      	ldr	r2, [r4, #0]
 80034ee:	4013      	ands	r3, r2
 80034f0:	2b01      	cmp	r3, #1
 80034f2:	d1b9      	bne.n	8003468 <Clock+0x134>
            writeCHARSEG(tmpClock[1], 1);
 80034f4:	2101      	movs	r1, #1
 80034f6:	7870      	ldrb	r0, [r6, #1]
 80034f8:	f7ff fbdc 	bl	8002cb4 <writeCHARSEG>
        if (SysTimer_ms % 4 == 2)
 80034fc:	2303      	movs	r3, #3
 80034fe:	6822      	ldr	r2, [r4, #0]
 8003500:	4013      	ands	r3, r2
 8003502:	2b02      	cmp	r3, #2
 8003504:	d1b5      	bne.n	8003472 <Clock+0x13e>
            writeCHARSEG(tmpClock[2], 2);
 8003506:	2102      	movs	r1, #2
 8003508:	78b0      	ldrb	r0, [r6, #2]
 800350a:	f7ff fbd3 	bl	8002cb4 <writeCHARSEG>
        if (SysTimer_ms % 4 == 3)
 800350e:	6823      	ldr	r3, [r4, #0]
 8003510:	43db      	mvns	r3, r3
 8003512:	079b      	lsls	r3, r3, #30
 8003514:	d1b1      	bne.n	800347a <Clock+0x146>
            writeCHARSEG(tmpClock[3], 3);
 8003516:	2103      	movs	r1, #3
 8003518:	78f0      	ldrb	r0, [r6, #3]
 800351a:	f7ff fbcb 	bl	8002cb4 <writeCHARSEG>
 800351e:	e7ac      	b.n	800347a <Clock+0x146>
        (SysTimer_ms % 2000 <= 1000) ? LEDl1l2_ON() : LEDl1l2_OFF();
 8003520:	6991      	ldr	r1, [r2, #24]
 8003522:	3318      	adds	r3, #24
 8003524:	430b      	orrs	r3, r1
 8003526:	6193      	str	r3, [r2, #24]
    if (menu[18].value)
 8003528:	2f00      	cmp	r7, #0
 800352a:	d1b8      	bne.n	800349e <Clock+0x16a>
        pinEN_OFF();
 800352c:	2380      	movs	r3, #128	@ 0x80
 800352e:	4a0f      	ldr	r2, [pc, #60]	@ (800356c <Clock+0x238>)
 8003530:	061b      	lsls	r3, r3, #24
 8003532:	6991      	ldr	r1, [r2, #24]
 8003534:	430b      	orrs	r3, r1
        CLEAR_BIT(TIM21->CR1, TIM_CR1_CEN); //  
 8003536:	2101      	movs	r1, #1
        pinEN_OFF();
 8003538:	6193      	str	r3, [r2, #24]
        CLEAR_BIT(TIM21->CR1, TIM_CR1_CEN); //  
 800353a:	4b0d      	ldr	r3, [pc, #52]	@ (8003570 <Clock+0x23c>)
 800353c:	681a      	ldr	r2, [r3, #0]
 800353e:	438a      	bics	r2, r1
 8003540:	601a      	str	r2, [r3, #0]
        TIM21->CCR1 = 0;
 8003542:	635f      	str	r7, [r3, #52]	@ 0x34
 8003544:	e7ad      	b.n	80034a2 <Clock+0x16e>
 8003546:	46c0      	nop			@ (mov r8, r8)
 8003548:	40002800 	.word	0x40002800
 800354c:	200001a4 	.word	0x200001a4
 8003550:	200001c5 	.word	0x200001c5
 8003554:	200001c4 	.word	0x200001c4
 8003558:	200001c6 	.word	0x200001c6
 800355c:	200001c0 	.word	0x200001c0
 8003560:	20000000 	.word	0x20000000
 8003564:	200001b8 	.word	0x200001b8
 8003568:	200001c1 	.word	0x200001c1
 800356c:	50000800 	.word	0x50000800
 8003570:	40010800 	.word	0x40010800

08003574 <setActualMenu>:
{
 8003574:	b5f8      	push	{r3, r4, r5, r6, r7, lr}
 8003576:	000d      	movs	r5, r1
    if (v != 0)
 8003578:	2800      	cmp	r0, #0
 800357a:	d01b      	beq.n	80035b4 <setActualMenu+0x40>
        if (v == -1)
 800357c:	3001      	adds	r0, #1
 800357e:	d03f      	beq.n	8003600 <setActualMenu+0x8c>
            if (menu[actualIndex].isParam && !isParamEditMode)
 8003580:	4e63      	ldr	r6, [pc, #396]	@ (8003710 <setActualMenu+0x19c>)
 8003582:	4c64      	ldr	r4, [pc, #400]	@ (8003714 <setActualMenu+0x1a0>)
 8003584:	7831      	ldrb	r1, [r6, #0]
 8003586:	008a      	lsls	r2, r1, #2
 8003588:	1850      	adds	r0, r2, r1
 800358a:	0040      	lsls	r0, r0, #1
 800358c:	1823      	adds	r3, r4, r0
 800358e:	469c      	mov	ip, r3
 8003590:	789b      	ldrb	r3, [r3, #2]
 8003592:	2b00      	cmp	r3, #0
 8003594:	d000      	beq.n	8003598 <setActualMenu+0x24>
 8003596:	e084      	b.n	80036a2 <setActualMenu+0x12e>
                    if (menu[i].parentid == menu[actualIndex].id)
 8003598:	5621      	ldrsb	r1, [r4, r0]
 800359a:	3401      	adds	r4, #1
 800359c:	e005      	b.n	80035aa <setActualMenu+0x36>
                for (uint8_t i = 0; i < menuArraySize; i++)
 800359e:	3301      	adds	r3, #1
 80035a0:	b2db      	uxtb	r3, r3
 80035a2:	340a      	adds	r4, #10
 80035a4:	2b1f      	cmp	r3, #31
 80035a6:	d100      	bne.n	80035aa <setActualMenu+0x36>
 80035a8:	e097      	b.n	80036da <setActualMenu+0x166>
                    if (menu[i].parentid == menu[actualIndex].id)
 80035aa:	2200      	movs	r2, #0
 80035ac:	56a2      	ldrsb	r2, [r4, r2]
 80035ae:	428a      	cmp	r2, r1
 80035b0:	d1f5      	bne.n	800359e <setActualMenu+0x2a>
                        actualIndex = i; //  ,     
 80035b2:	7033      	strb	r3, [r6, #0]
        if (isParamEditMode)
 80035b4:	4b58      	ldr	r3, [pc, #352]	@ (8003718 <setActualMenu+0x1a4>)
 80035b6:	781b      	ldrb	r3, [r3, #0]
    if (h != 0)
 80035b8:	2d00      	cmp	r5, #0
 80035ba:	d10a      	bne.n	80035d2 <setActualMenu+0x5e>
    if (isParamEditMode)
 80035bc:	2b00      	cmp	r3, #0
 80035be:	d14a      	bne.n	8003656 <setActualMenu+0xe2>
        return menu[actualIndex]._name;
 80035c0:	4b53      	ldr	r3, [pc, #332]	@ (8003710 <setActualMenu+0x19c>)
 80035c2:	4c54      	ldr	r4, [pc, #336]	@ (8003714 <setActualMenu+0x1a0>)
 80035c4:	7818      	ldrb	r0, [r3, #0]
 80035c6:	0083      	lsls	r3, r0, #2
 80035c8:	181b      	adds	r3, r3, r0
 80035ca:	005b      	lsls	r3, r3, #1
 80035cc:	3303      	adds	r3, #3
 80035ce:	18e0      	adds	r0, r4, r3
}
 80035d0:	bdf8      	pop	{r3, r4, r5, r6, r7, pc}
            actualIndex = getNearMenuIndexByID(menu[actualIndex].parentid,
 80035d2:	4e4f      	ldr	r6, [pc, #316]	@ (8003710 <setActualMenu+0x19c>)
 80035d4:	7831      	ldrb	r1, [r6, #0]
        if (isParamEditMode)
 80035d6:	2b00      	cmp	r3, #0
 80035d8:	d02f      	beq.n	800363a <setActualMenu+0xc6>
            tmpVal += h; //     ...
 80035da:	4850      	ldr	r0, [pc, #320]	@ (800371c <setActualMenu+0x1a8>)
 80035dc:	4c4d      	ldr	r4, [pc, #308]	@ (8003714 <setActualMenu+0x1a0>)
 80035de:	7803      	ldrb	r3, [r0, #0]
 80035e0:	008a      	lsls	r2, r1, #2
            if (tmpVal > menu[actualIndex]._max)
 80035e2:	1852      	adds	r2, r2, r1
 80035e4:	0052      	lsls	r2, r2, #1
 80035e6:	18a2      	adds	r2, r4, r2
 80035e8:	7a56      	ldrb	r6, [r2, #9]
            tmpVal += h; //     ...
 80035ea:	195b      	adds	r3, r3, r5
 80035ec:	b2db      	uxtb	r3, r3
                tmpVal = menu[actualIndex]._min;
 80035ee:	7a12      	ldrb	r2, [r2, #8]
            tmpVal += h; //     ...
 80035f0:	7003      	strb	r3, [r0, #0]
            if (tmpVal > menu[actualIndex]._max)
 80035f2:	42b3      	cmp	r3, r6
 80035f4:	d862      	bhi.n	80036bc <setActualMenu+0x148>
            if (tmpVal < menu[actualIndex]._min)
 80035f6:	4293      	cmp	r3, r2
 80035f8:	d300      	bcc.n	80035fc <setActualMenu+0x88>
 80035fa:	e087      	b.n	800370c <setActualMenu+0x198>
                tmpVal = menu[actualIndex]._max;
 80035fc:	7006      	strb	r6, [r0, #0]
 80035fe:	e02c      	b.n	800365a <setActualMenu+0xe6>
            if (isParamEditMode)
 8003600:	4f45      	ldr	r7, [pc, #276]	@ (8003718 <setActualMenu+0x1a4>)
 8003602:	783b      	ldrb	r3, [r7, #0]
 8003604:	2b00      	cmp	r3, #0
 8003606:	d162      	bne.n	80036ce <setActualMenu+0x15a>
                if (menu[actualIndex].parentid > 0)
 8003608:	4e41      	ldr	r6, [pc, #260]	@ (8003710 <setActualMenu+0x19c>)
 800360a:	4c42      	ldr	r4, [pc, #264]	@ (8003714 <setActualMenu+0x1a0>)
 800360c:	7831      	ldrb	r1, [r6, #0]
 800360e:	008a      	lsls	r2, r1, #2
 8003610:	1852      	adds	r2, r2, r1
 8003612:	2101      	movs	r1, #1
 8003614:	0052      	lsls	r2, r2, #1
 8003616:	18a2      	adds	r2, r4, r2
 8003618:	5651      	ldrsb	r1, [r2, r1]
 800361a:	2900      	cmp	r1, #0
 800361c:	dc05      	bgt.n	800362a <setActualMenu+0xb6>
 800361e:	e009      	b.n	8003634 <setActualMenu+0xc0>
    for (uint8_t i = 0; i < menuArraySize; i++)
 8003620:	3301      	adds	r3, #1
 8003622:	b2db      	uxtb	r3, r3
 8003624:	340a      	adds	r4, #10
 8003626:	2b1f      	cmp	r3, #31
 8003628:	d06e      	beq.n	8003708 <setActualMenu+0x194>
        if (menu[i].id == id)
 800362a:	2200      	movs	r2, #0
 800362c:	56a2      	ldrsb	r2, [r4, r2]
 800362e:	428a      	cmp	r2, r1
 8003630:	d1f6      	bne.n	8003620 <setActualMenu+0xac>
                    actualIndex = getMenuIndexByID(menu[actualIndex].parentid);
 8003632:	7033      	strb	r3, [r6, #0]
    if (h != 0)
 8003634:	2d00      	cmp	r5, #0
 8003636:	d04e      	beq.n	80036d6 <setActualMenu+0x162>
 8003638:	4e35      	ldr	r6, [pc, #212]	@ (8003710 <setActualMenu+0x19c>)
            actualIndex = getNearMenuIndexByID(menu[actualIndex].parentid,
 800363a:	2001      	movs	r0, #1
 800363c:	7832      	ldrb	r2, [r6, #0]
 800363e:	4c35      	ldr	r4, [pc, #212]	@ (8003714 <setActualMenu+0x1a0>)
 8003640:	0093      	lsls	r3, r2, #2
 8003642:	189b      	adds	r3, r3, r2
 8003644:	005b      	lsls	r3, r3, #1
 8003646:	56e1      	ldrsb	r1, [r4, r3]
 8003648:	18e3      	adds	r3, r4, r3
 800364a:	5618      	ldrsb	r0, [r3, r0]
 800364c:	002a      	movs	r2, r5
 800364e:	f7ff fdc5 	bl	80031dc <getNearMenuIndexByID>
 8003652:	7030      	strb	r0, [r6, #0]
    if (isParamEditMode)
 8003654:	e7b7      	b.n	80035c6 <setActualMenu+0x52>
 8003656:	4831      	ldr	r0, [pc, #196]	@ (800371c <setActualMenu+0x1a8>)
        tmpV[0] = ((tmpVal / 1000) % 10 != 0) ? intToChar((tmpVal / 1000) % 10) : ' ';
 8003658:	7806      	ldrb	r6, [r0, #0]
 800365a:	2720      	movs	r7, #32
 800365c:	4c30      	ldr	r4, [pc, #192]	@ (8003720 <setActualMenu+0x1ac>)
        tmpV[2] = ((tmpVal / 10) % 10 != 0 || (tmpVal / 100) % 10 != 0) ? intToChar((tmpVal / 10) % 10) : ' ';
 800365e:	210a      	movs	r1, #10
 8003660:	0030      	movs	r0, r6
        tmpV[0] = ((tmpVal / 1000) % 10 != 0) ? intToChar((tmpVal / 1000) % 10) : ' ';
 8003662:	7027      	strb	r7, [r4, #0]
        tmpV[2] = ((tmpVal / 10) % 10 != 0 || (tmpVal / 100) % 10 != 0) ? intToChar((tmpVal / 10) % 10) : ' ';
 8003664:	f7fc fd50 	bl	8000108 <__udivsi3>
 8003668:	b2c5      	uxtb	r5, r0
        tmpV[1] = ((tmpVal / 100) % 10 != 0 || (tmpVal / 1000) % 10 != 0) ? intToChar((tmpVal / 100) % 10) : ' ';
 800366a:	2e63      	cmp	r6, #99	@ 0x63
 800366c:	d80d      	bhi.n	800368a <setActualMenu+0x116>
 800366e:	7067      	strb	r7, [r4, #1]
        tmpV[2] = ((tmpVal / 10) % 10 != 0 || (tmpVal / 100) % 10 != 0) ? intToChar((tmpVal / 10) % 10) : ' ';
 8003670:	2e09      	cmp	r6, #9
 8003672:	d926      	bls.n	80036c2 <setActualMenu+0x14e>
 8003674:	3530      	adds	r5, #48	@ 0x30
 8003676:	b2ed      	uxtb	r5, r5
        tmpV[3] = intToChar(tmpVal % 10);
 8003678:	210a      	movs	r1, #10
 800367a:	0030      	movs	r0, r6
        tmpV[2] = ((tmpVal / 10) % 10 != 0 || (tmpVal / 100) % 10 != 0) ? intToChar((tmpVal / 10) % 10) : ' ';
 800367c:	70a5      	strb	r5, [r4, #2]
        tmpV[3] = intToChar(tmpVal % 10);
 800367e:	f7fc fdc9 	bl	8000214 <__aeabi_uidivmod>
 8003682:	3130      	adds	r1, #48	@ 0x30
        return tmpV;
 8003684:	0020      	movs	r0, r4
        tmpV[3] = intToChar(tmpVal % 10);
 8003686:	70e1      	strb	r1, [r4, #3]
        return tmpV;
 8003688:	e7a2      	b.n	80035d0 <setActualMenu+0x5c>
        tmpV[1] = ((tmpVal / 100) % 10 != 0 || (tmpVal / 1000) % 10 != 0) ? intToChar((tmpVal / 100) % 10) : ' ';
 800368a:	2164      	movs	r1, #100	@ 0x64
 800368c:	0030      	movs	r0, r6
 800368e:	f7fc fd3b 	bl	8000108 <__udivsi3>
 8003692:	3030      	adds	r0, #48	@ 0x30
 8003694:	7060      	strb	r0, [r4, #1]
        tmpV[2] = ((tmpVal / 10) % 10 != 0 || (tmpVal / 100) % 10 != 0) ? intToChar((tmpVal / 10) % 10) : ' ';
 8003696:	210a      	movs	r1, #10
 8003698:	0028      	movs	r0, r5
 800369a:	f7fc fdbb 	bl	8000214 <__aeabi_uidivmod>
 800369e:	b2cd      	uxtb	r5, r1
 80036a0:	e7e8      	b.n	8003674 <setActualMenu+0x100>
            if (menu[actualIndex].isParam && !isParamEditMode)
 80036a2:	4f1d      	ldr	r7, [pc, #116]	@ (8003718 <setActualMenu+0x1a4>)
 80036a4:	783b      	ldrb	r3, [r7, #0]
 80036a6:	2b00      	cmp	r3, #0
 80036a8:	d10d      	bne.n	80036c6 <setActualMenu+0x152>
                isParamEditMode = true;           //     
 80036aa:	3301      	adds	r3, #1
 80036ac:	703b      	strb	r3, [r7, #0]
                tmpVal = menu[actualIndex].value; //      
 80036ae:	4663      	mov	r3, ip
 80036b0:	481a      	ldr	r0, [pc, #104]	@ (800371c <setActualMenu+0x1a8>)
 80036b2:	79db      	ldrb	r3, [r3, #7]
 80036b4:	7003      	strb	r3, [r0, #0]
    if (h != 0)
 80036b6:	2d00      	cmp	r5, #0
 80036b8:	d0ce      	beq.n	8003658 <setActualMenu+0xe4>
 80036ba:	e792      	b.n	80035e2 <setActualMenu+0x6e>
                tmpVal = menu[actualIndex]._min;
 80036bc:	0016      	movs	r6, r2
 80036be:	7002      	strb	r2, [r0, #0]
            if (tmpVal < menu[actualIndex]._min)
 80036c0:	e7cb      	b.n	800365a <setActualMenu+0xe6>
        tmpV[2] = ((tmpVal / 10) % 10 != 0 || (tmpVal / 100) % 10 != 0) ? intToChar((tmpVal / 10) % 10) : ' ';
 80036c2:	2520      	movs	r5, #32
 80036c4:	e7d8      	b.n	8003678 <setActualMenu+0x104>
                menu[actualIndex].value = tmpVal; //   
 80036c6:	4662      	mov	r2, ip
 80036c8:	4814      	ldr	r0, [pc, #80]	@ (800371c <setActualMenu+0x1a8>)
 80036ca:	7803      	ldrb	r3, [r0, #0]
 80036cc:	71d3      	strb	r3, [r2, #7]
                isParamEditMode = false;          //     
 80036ce:	2300      	movs	r3, #0
 80036d0:	703b      	strb	r3, [r7, #0]
    if (h != 0)
 80036d2:	2d00      	cmp	r5, #0
 80036d4:	d1b0      	bne.n	8003638 <setActualMenu+0xc4>
    if (isParamEditMode)
 80036d6:	783b      	ldrb	r3, [r7, #0]
 80036d8:	e770      	b.n	80035bc <setActualMenu+0x48>
                    switch (menu[actualIndex].id)
 80036da:	2910      	cmp	r1, #16
 80036dc:	d011      	beq.n	8003702 <setActualMenu+0x18e>
 80036de:	291e      	cmp	r1, #30
 80036e0:	d005      	beq.n	80036ee <setActualMenu+0x17a>
 80036e2:	2909      	cmp	r1, #9
 80036e4:	d000      	beq.n	80036e8 <setActualMenu+0x174>
 80036e6:	e765      	b.n	80035b4 <setActualMenu+0x40>
                        setTimeNow();
 80036e8:	f7ff fce0 	bl	80030ac <setTimeNow>
                        break;
 80036ec:	e762      	b.n	80035b4 <setActualMenu+0x40>
                        while (Clock())
 80036ee:	f7ff fe21 	bl	8003334 <Clock>
 80036f2:	2800      	cmp	r0, #0
 80036f4:	d100      	bne.n	80036f8 <setActualMenu+0x184>
 80036f6:	e75d      	b.n	80035b4 <setActualMenu+0x40>
 80036f8:	f7ff fe1c 	bl	8003334 <Clock>
 80036fc:	2800      	cmp	r0, #0
 80036fe:	d1f6      	bne.n	80036ee <setActualMenu+0x17a>
 8003700:	e758      	b.n	80035b4 <setActualMenu+0x40>
                        testMainLamp();
 8003702:	f7ff fc49 	bl	8002f98 <testMainLamp>
                        break;
 8003706:	e755      	b.n	80035b4 <setActualMenu+0x40>
    return -1; //     ,  -1
 8003708:	33e0      	adds	r3, #224	@ 0xe0
 800370a:	e792      	b.n	8003632 <setActualMenu+0xbe>
 800370c:	001e      	movs	r6, r3
    if (isParamEditMode)
 800370e:	e7a4      	b.n	800365a <setActualMenu+0xe6>
 8003710:	200001be 	.word	0x200001be
 8003714:	20000000 	.word	0x20000000
 8003718:	200001bd 	.word	0x200001bd
 800371c:	200001bc 	.word	0x200001bc
 8003720:	200001a8 	.word	0x200001a8

08003724 <main>:
{
 8003724:	b5f0      	push	{r4, r5, r6, r7, lr}
 8003726:	46de      	mov	lr, fp
 8003728:	4657      	mov	r7, sl
 800372a:	464e      	mov	r6, r9
 800372c:	4645      	mov	r5, r8
 800372e:	b5e0      	push	{r5, r6, r7, lr}
    LEDl1l2_OFF();          //   l1l2.
 8003730:	24a0      	movs	r4, #160	@ 0xa0
{
 8003732:	b085      	sub	sp, #20
    CMSIS_FullInit();     //  CMSIS    1 .
 8003734:	f7fe ffa2 	bl	800267c <CMSIS_FullInit>
    SystemClock_Config(); //   .
 8003738:	f7fe ffd0 	bl	80026dc <SystemClock_Config>
    GPIO_Init();  //  GPIO.
 800373c:	f7ff f92c 	bl	8002998 <GPIO_Init>
    RTC_Init();   //    (RTC).
 8003740:	f7ff f84e 	bl	80027e0 <RTC_Init>
    TIM21_Init(); //   TIM21.
 8003744:	f7ff f8aa 	bl	800289c <TIM21_Init>
    LEDl1l2_OFF();          //   l1l2.
 8003748:	2280      	movs	r2, #128	@ 0x80
 800374a:	05e4      	lsls	r4, r4, #23
 800374c:	69a3      	ldr	r3, [r4, #24]
 800374e:	04d2      	lsls	r2, r2, #19
 8003750:	4313      	orrs	r3, r2
 8003752:	61a3      	str	r3, [r4, #24]
    LEDalarm_OFF();         //   .
 8003754:	2380      	movs	r3, #128	@ 0x80
 8003756:	69a2      	ldr	r2, [r4, #24]
 8003758:	045b      	lsls	r3, r3, #17
 800375a:	4313      	orrs	r3, r2
 800375c:	61a3      	str	r3, [r4, #24]
    pinEN_OFF();            //  enable .
 800375e:	2380      	movs	r3, #128	@ 0x80
 8003760:	4a59      	ldr	r2, [pc, #356]	@ (80038c8 <main+0x1a4>)
 8003762:	061b      	lsls	r3, r3, #24
 8003764:	6991      	ldr	r1, [r2, #24]
    writeCHARSEG(' ', ' '); //   .
 8003766:	2020      	movs	r0, #32
    pinEN_OFF();            //  enable .
 8003768:	430b      	orrs	r3, r1
 800376a:	6193      	str	r3, [r2, #24]
    writeCHARSEG(' ', ' '); //   .
 800376c:	2120      	movs	r1, #32
 800376e:	f7ff faa1 	bl	8002cb4 <writeCHARSEG>
    tmpValue = setActualMenu(0, 0); //   .
 8003772:	2100      	movs	r1, #0
 8003774:	2000      	movs	r0, #0
 8003776:	f7ff fefd 	bl	8003574 <setActualMenu>
 800377a:	0007      	movs	r7, r0
 800377c:	4b53      	ldr	r3, [pc, #332]	@ (80038cc <main+0x1a8>)
        if (SysTimer_ms % 4 == 0)
 800377e:	4e54      	ldr	r6, [pc, #336]	@ (80038d0 <main+0x1ac>)
 8003780:	469b      	mov	fp, r3
 8003782:	4b54      	ldr	r3, [pc, #336]	@ (80038d4 <main+0x1b0>)
 8003784:	469a      	mov	sl, r3
 8003786:	4b54      	ldr	r3, [pc, #336]	@ (80038d8 <main+0x1b4>)
 8003788:	4699      	mov	r9, r3
 800378a:	4b54      	ldr	r3, [pc, #336]	@ (80038dc <main+0x1b8>)
 800378c:	9301      	str	r3, [sp, #4]
 800378e:	4b54      	ldr	r3, [pc, #336]	@ (80038e0 <main+0x1bc>)
 8003790:	9302      	str	r3, [sp, #8]
 8003792:	4b54      	ldr	r3, [pc, #336]	@ (80038e4 <main+0x1c0>)
 8003794:	9303      	str	r3, [sp, #12]
        LEDl1l2_OFF();  //   l1l2.
 8003796:	2280      	movs	r2, #128	@ 0x80
 8003798:	69a3      	ldr	r3, [r4, #24]
 800379a:	04d2      	lsls	r2, r2, #19
 800379c:	4313      	orrs	r3, r2
 800379e:	61a3      	str	r3, [r4, #24]
        LEDalarm_OFF(); //   .
 80037a0:	2380      	movs	r3, #128	@ 0x80
 80037a2:	69a2      	ldr	r2, [r4, #24]
 80037a4:	045b      	lsls	r3, r3, #17
 80037a6:	4313      	orrs	r3, r2
 80037a8:	61a3      	str	r3, [r4, #24]
        pinEN_OFF();    //  enable .
 80037aa:	2380      	movs	r3, #128	@ 0x80
 80037ac:	4a46      	ldr	r2, [pc, #280]	@ (80038c8 <main+0x1a4>)
 80037ae:	061b      	lsls	r3, r3, #24
 80037b0:	6991      	ldr	r1, [r2, #24]
        hmenu = 0; //     .
 80037b2:	2500      	movs	r5, #0
        pinEN_OFF();    //  enable .
 80037b4:	430b      	orrs	r3, r1
 80037b6:	6193      	str	r3, [r2, #24]
        interaptTIMDebounce(); //     .
 80037b8:	f7ff fd60 	bl	800327c <interaptTIMDebounce>
        if (flagDecrementButton)
 80037bc:	465b      	mov	r3, fp
 80037be:	781b      	ldrb	r3, [r3, #0]
 80037c0:	2b00      	cmp	r3, #0
 80037c2:	d002      	beq.n	80037ca <main+0xa6>
            flagDecrementButton = false; //  .
 80037c4:	465b      	mov	r3, fp
 80037c6:	701d      	strb	r5, [r3, #0]
            hmenu = -1;                  //    .
 80037c8:	3d01      	subs	r5, #1
        if (flagDecrementButtonLong)
 80037ca:	4653      	mov	r3, sl
 80037cc:	781b      	ldrb	r3, [r3, #0]
 80037ce:	2b00      	cmp	r3, #0
 80037d0:	d004      	beq.n	80037dc <main+0xb8>
            flagDecrementButtonLong = false; //  .
 80037d2:	2300      	movs	r3, #0
 80037d4:	4652      	mov	r2, sl
            hmenu = -5;                      //      ( ).
 80037d6:	2505      	movs	r5, #5
            flagDecrementButtonLong = false; //  .
 80037d8:	7013      	strb	r3, [r2, #0]
            hmenu = -5;                      //      ( ).
 80037da:	426d      	negs	r5, r5
        if (flagIncrementButton)
 80037dc:	464b      	mov	r3, r9
 80037de:	781b      	ldrb	r3, [r3, #0]
 80037e0:	2b00      	cmp	r3, #0
 80037e2:	d003      	beq.n	80037ec <main+0xc8>
            flagIncrementButton = false; //  .
 80037e4:	2300      	movs	r3, #0
 80037e6:	464a      	mov	r2, r9
            hmenu = 1;                   //    .
 80037e8:	2501      	movs	r5, #1
            flagIncrementButton = false; //  .
 80037ea:	7013      	strb	r3, [r2, #0]
        if (flagEnterButton)
 80037ec:	9b01      	ldr	r3, [sp, #4]
        if (flagIncrementButtonLong)
 80037ee:	9803      	ldr	r0, [sp, #12]
        if (flagEnterButton)
 80037f0:	781a      	ldrb	r2, [r3, #0]
        if (flagIncrementButtonLong)
 80037f2:	7801      	ldrb	r1, [r0, #0]
        if (flagEnterButtonLong)
 80037f4:	9b02      	ldr	r3, [sp, #8]
 80037f6:	781b      	ldrb	r3, [r3, #0]
        if (flagIncrementButtonLong)
 80037f8:	2900      	cmp	r1, #0
 80037fa:	d02c      	beq.n	8003856 <main+0x132>
            flagIncrementButtonLong = false; //  .
 80037fc:	2100      	movs	r1, #0
            hmenu = 5;                       //      ( ).
 80037fe:	2505      	movs	r5, #5
            flagIncrementButtonLong = false; //  .
 8003800:	7001      	strb	r1, [r0, #0]
        if (flagEnterButton)
 8003802:	2a00      	cmp	r2, #0
 8003804:	d130      	bne.n	8003868 <main+0x144>
        if (flagEnterButtonLong)
 8003806:	2b00      	cmp	r3, #0
 8003808:	d02c      	beq.n	8003864 <main+0x140>
            flagEnterButtonLong = false; //  .
 800380a:	2300      	movs	r3, #0
 800380c:	9a02      	ldr	r2, [sp, #8]
 800380e:	7013      	strb	r3, [r2, #0]
            vmenu = -1;                  //      .
 8003810:	3b01      	subs	r3, #1
 8003812:	4698      	mov	r8, r3
            if (tmpValue != NULL) {
 8003814:	2f00      	cmp	r7, #0
 8003816:	d002      	beq.n	800381e <main+0xfa>
                free(tmpValue);
 8003818:	0038      	movs	r0, r7
 800381a:	f000 f9db 	bl	8003bd4 <free>
            tmpValue = setActualMenu(vmenu, hmenu);
 800381e:	0029      	movs	r1, r5
 8003820:	4640      	mov	r0, r8
 8003822:	f7ff fea7 	bl	8003574 <setActualMenu>
 8003826:	1e07      	subs	r7, r0, #0
            if (tmpValue == NULL) {
 8003828:	d045      	beq.n	80038b6 <main+0x192>
        if (SysTimer_ms % 4 == 0)
 800382a:	6833      	ldr	r3, [r6, #0]
 800382c:	079b      	lsls	r3, r3, #30
 800382e:	d023      	beq.n	8003878 <main+0x154>
        if (SysTimer_ms % 4 == 1)
 8003830:	2303      	movs	r3, #3
 8003832:	6832      	ldr	r2, [r6, #0]
 8003834:	4013      	ands	r3, r2
 8003836:	2b01      	cmp	r3, #1
 8003838:	d027      	beq.n	800388a <main+0x166>
        if (SysTimer_ms % 4 == 2)
 800383a:	2303      	movs	r3, #3
 800383c:	6832      	ldr	r2, [r6, #0]
 800383e:	4013      	ands	r3, r2
 8003840:	2b02      	cmp	r3, #2
 8003842:	d02b      	beq.n	800389c <main+0x178>
        if (SysTimer_ms % 4 == 3)
 8003844:	6833      	ldr	r3, [r6, #0]
 8003846:	43db      	mvns	r3, r3
 8003848:	079b      	lsls	r3, r3, #30
 800384a:	d02f      	beq.n	80038ac <main+0x188>
        free(tmpValue);
 800384c:	0038      	movs	r0, r7
 800384e:	f000 f9c1 	bl	8003bd4 <free>
        tmpValue = NULL;
 8003852:	2700      	movs	r7, #0
    {
 8003854:	e79f      	b.n	8003796 <main+0x72>
        if (flagEnterButton)
 8003856:	2a00      	cmp	r2, #0
 8003858:	d106      	bne.n	8003868 <main+0x144>
        if (flagEnterButtonLong)
 800385a:	2b00      	cmp	r3, #0
 800385c:	d1d5      	bne.n	800380a <main+0xe6>
        if (vmenu != 0 || hmenu != 0) {
 800385e:	2d00      	cmp	r5, #0
 8003860:	d0e3      	beq.n	800382a <main+0x106>
 8003862:	2300      	movs	r3, #0
 8003864:	4698      	mov	r8, r3
 8003866:	e7d5      	b.n	8003814 <main+0xf0>
            flagEnterButton = false; //  .
 8003868:	2200      	movs	r2, #0
 800386a:	9901      	ldr	r1, [sp, #4]
 800386c:	700a      	strb	r2, [r1, #0]
        if (flagEnterButtonLong)
 800386e:	2b00      	cmp	r3, #0
 8003870:	d1cb      	bne.n	800380a <main+0xe6>
            vmenu = 1;               //      .
 8003872:	3301      	adds	r3, #1
 8003874:	4698      	mov	r8, r3
 8003876:	e7cd      	b.n	8003814 <main+0xf0>
            writeCHARSEG(tmpValue[0], 0); //     0.
 8003878:	2100      	movs	r1, #0
 800387a:	7838      	ldrb	r0, [r7, #0]
 800387c:	f7ff fa1a 	bl	8002cb4 <writeCHARSEG>
        if (SysTimer_ms % 4 == 1)
 8003880:	2303      	movs	r3, #3
 8003882:	6832      	ldr	r2, [r6, #0]
 8003884:	4013      	ands	r3, r2
 8003886:	2b01      	cmp	r3, #1
 8003888:	d1d7      	bne.n	800383a <main+0x116>
            writeCHARSEG(tmpValue[1], 1); //     1.
 800388a:	2101      	movs	r1, #1
 800388c:	7878      	ldrb	r0, [r7, #1]
 800388e:	f7ff fa11 	bl	8002cb4 <writeCHARSEG>
        if (SysTimer_ms % 4 == 2)
 8003892:	2303      	movs	r3, #3
 8003894:	6832      	ldr	r2, [r6, #0]
 8003896:	4013      	ands	r3, r2
 8003898:	2b02      	cmp	r3, #2
 800389a:	d1d3      	bne.n	8003844 <main+0x120>
            writeCHARSEG(tmpValue[2], 2); //     2.
 800389c:	2102      	movs	r1, #2
 800389e:	78b8      	ldrb	r0, [r7, #2]
 80038a0:	f7ff fa08 	bl	8002cb4 <writeCHARSEG>
        if (SysTimer_ms % 4 == 3)
 80038a4:	6833      	ldr	r3, [r6, #0]
 80038a6:	43db      	mvns	r3, r3
 80038a8:	079b      	lsls	r3, r3, #30
 80038aa:	d1cf      	bne.n	800384c <main+0x128>
            writeCHARSEG(tmpValue[3], 3); //     3.
 80038ac:	2103      	movs	r1, #3
 80038ae:	78f8      	ldrb	r0, [r7, #3]
 80038b0:	f7ff fa00 	bl	8002cb4 <writeCHARSEG>
 80038b4:	e7ca      	b.n	800384c <main+0x128>
}
 80038b6:	2001      	movs	r0, #1
 80038b8:	b005      	add	sp, #20
 80038ba:	bcf0      	pop	{r4, r5, r6, r7}
 80038bc:	46bb      	mov	fp, r7
 80038be:	46b2      	mov	sl, r6
 80038c0:	46a9      	mov	r9, r5
 80038c2:	46a0      	mov	r8, r4
 80038c4:	bdf0      	pop	{r4, r5, r6, r7, pc}
 80038c6:	46c0      	nop			@ (mov r8, r8)
 80038c8:	50000800 	.word	0x50000800
 80038cc:	200001c5 	.word	0x200001c5
 80038d0:	200001b8 	.word	0x200001b8
 80038d4:	200001c2 	.word	0x200001c2
 80038d8:	200001c6 	.word	0x200001c6
 80038dc:	200001c4 	.word	0x200001c4
 80038e0:	200001c1 	.word	0x200001c1
 80038e4:	200001c3 	.word	0x200001c3

080038e8 <SysTick_Handler>:

/* Handlers--------------------------------------------------------*/
void SysTick_Handler(void)
{
    SysTimer_ms++;
 80038e8:	4a06      	ldr	r2, [pc, #24]	@ (8003904 <SysTick_Handler+0x1c>)
 80038ea:	6813      	ldr	r3, [r2, #0]
 80038ec:	3301      	adds	r3, #1
 80038ee:	6013      	str	r3, [r2, #0]
    //     1 

    if (Delay_counter_ms)
 80038f0:	4b05      	ldr	r3, [pc, #20]	@ (8003908 <SysTick_Handler+0x20>)
 80038f2:	881a      	ldrh	r2, [r3, #0]
 80038f4:	2a00      	cmp	r2, #0
 80038f6:	d003      	beq.n	8003900 <SysTick_Handler+0x18>
    {
        Delay_counter_ms--;
 80038f8:	881a      	ldrh	r2, [r3, #0]
 80038fa:	3a01      	subs	r2, #1
 80038fc:	b292      	uxth	r2, r2
 80038fe:	801a      	strh	r2, [r3, #0]
        //      ,  
    }
}
 8003900:	4770      	bx	lr
 8003902:	46c0      	nop			@ (mov r8, r8)
 8003904:	200001b8 	.word	0x200001b8
 8003908:	200001b4 	.word	0x200001b4

0800390c <EXTI0_1_IRQHandler>:
void EXTI0_1_IRQHandler(void)
{
    //     EXTI0  EXTI1

    //   DecrementButton (EXTI3)
    if (EXTI->PR & EXTI_PR_PR0)
 800390c:	2201      	movs	r2, #1
 800390e:	4b3c      	ldr	r3, [pc, #240]	@ (8003a00 <EXTI0_1_IRQHandler+0xf4>)
{
 8003910:	b510      	push	{r4, lr}
    if (EXTI->PR & EXTI_PR_PR0)
 8003912:	6959      	ldr	r1, [r3, #20]
 8003914:	420a      	tst	r2, r1
 8003916:	d017      	beq.n	8003948 <EXTI0_1_IRQHandler+0x3c>
    {
        CLEAR_BIT(EXTI->IMR, EXTI_IMR_IM0);
 8003918:	6819      	ldr	r1, [r3, #0]
        //      0

        DecrementButtonDebounce = SysTimer_ms;
 800391a:	483a      	ldr	r0, [pc, #232]	@ (8003a04 <EXTI0_1_IRQHandler+0xf8>)
        CLEAR_BIT(EXTI->IMR, EXTI_IMR_IM0);
 800391c:	4391      	bics	r1, r2
 800391e:	6019      	str	r1, [r3, #0]
        DecrementButtonDebounce = SysTimer_ms;
 8003920:	4939      	ldr	r1, [pc, #228]	@ (8003a08 <EXTI0_1_IRQHandler+0xfc>)
 8003922:	680c      	ldr	r4, [r1, #0]
 8003924:	8004      	strh	r4, [r0, #0]
        //   debounce  DecrementButton

        if (!flagDecrementButtonDown)
 8003926:	4839      	ldr	r0, [pc, #228]	@ (8003a0c <EXTI0_1_IRQHandler+0x100>)
 8003928:	7804      	ldrb	r4, [r0, #0]
 800392a:	2c00      	cmp	r4, #0
 800392c:	d144      	bne.n	80039b8 <EXTI0_1_IRQHandler+0xac>
        {
            timeDecrementButtonDown = SysTimer_ms;
 800392e:	680c      	ldr	r4, [r1, #0]
 8003930:	4937      	ldr	r1, [pc, #220]	@ (8003a10 <EXTI0_1_IRQHandler+0x104>)
            //     Decrement

            flagDecrementButtonDown = true;
 8003932:	7002      	strb	r2, [r0, #0]
            timeDecrementButtonDown = SysTimer_ms;
 8003934:	800c      	strh	r4, [r1, #0]
            //     Decrement

            CLEAR_BIT(EXTI->FTSR, EXTI_FTSR_FT0);
 8003936:	68d9      	ldr	r1, [r3, #12]
 8003938:	4391      	bics	r1, r2
 800393a:	60d9      	str	r1, [r3, #12]
            SET_BIT(EXTI->RTSR, EXTI_RTSR_RT0);
 800393c:	6899      	ldr	r1, [r3, #8]
 800393e:	430a      	orrs	r2, r1
 8003940:	609a      	str	r2, [r3, #8]
                flagDecrementButton = true;
                //    
            }
        }

        EXTI->PR = EXTI_PR_PR0;
 8003942:	2201      	movs	r2, #1
 8003944:	4b2e      	ldr	r3, [pc, #184]	@ (8003a00 <EXTI0_1_IRQHandler+0xf4>)
 8003946:	615a      	str	r2, [r3, #20]
        //      0
    }

    //   EnterButton (EXTI1)
    if (EXTI->PR & EXTI_PR_PR1)
 8003948:	2202      	movs	r2, #2
 800394a:	4b2d      	ldr	r3, [pc, #180]	@ (8003a00 <EXTI0_1_IRQHandler+0xf4>)
 800394c:	6959      	ldr	r1, [r3, #20]
 800394e:	420a      	tst	r2, r1
 8003950:	d018      	beq.n	8003984 <EXTI0_1_IRQHandler+0x78>
    {
        CLEAR_BIT(EXTI->IMR, EXTI_IMR_IM1);
 8003952:	6819      	ldr	r1, [r3, #0]
        //      1

        EnterButtonDebounce = SysTimer_ms;
 8003954:	482f      	ldr	r0, [pc, #188]	@ (8003a14 <EXTI0_1_IRQHandler+0x108>)
        CLEAR_BIT(EXTI->IMR, EXTI_IMR_IM1);
 8003956:	4391      	bics	r1, r2
 8003958:	6019      	str	r1, [r3, #0]
        EnterButtonDebounce = SysTimer_ms;
 800395a:	492b      	ldr	r1, [pc, #172]	@ (8003a08 <EXTI0_1_IRQHandler+0xfc>)
 800395c:	680c      	ldr	r4, [r1, #0]
 800395e:	8004      	strh	r4, [r0, #0]
        //   debounce  EnterButton

        if (!flagEnterButtonDown)
 8003960:	482d      	ldr	r0, [pc, #180]	@ (8003a18 <EXTI0_1_IRQHandler+0x10c>)
 8003962:	7804      	ldrb	r4, [r0, #0]
 8003964:	2c00      	cmp	r4, #0
 8003966:	d10e      	bne.n	8003986 <EXTI0_1_IRQHandler+0x7a>
        {
            timeEnterButtonDown = SysTimer_ms;
 8003968:	680c      	ldr	r4, [r1, #0]
 800396a:	492c      	ldr	r1, [pc, #176]	@ (8003a1c <EXTI0_1_IRQHandler+0x110>)
 800396c:	800c      	strh	r4, [r1, #0]
            //     Enter

            flagEnterButtonDown = true;
 800396e:	2101      	movs	r1, #1
 8003970:	7001      	strb	r1, [r0, #0]
            //     Enter

            CLEAR_BIT(EXTI->FTSR, EXTI_FTSR_FT1);
 8003972:	68d9      	ldr	r1, [r3, #12]
 8003974:	4391      	bics	r1, r2
 8003976:	60d9      	str	r1, [r3, #12]
            SET_BIT(EXTI->RTSR, EXTI_RTSR_RT1);
 8003978:	6899      	ldr	r1, [r3, #8]
 800397a:	430a      	orrs	r2, r1
 800397c:	609a      	str	r2, [r3, #8]
                flagEnterButton = true;
                //    
            }
        }

        EXTI->PR = EXTI_PR_PR1;
 800397e:	2202      	movs	r2, #2
 8003980:	4b1f      	ldr	r3, [pc, #124]	@ (8003a00 <EXTI0_1_IRQHandler+0xf4>)
 8003982:	615a      	str	r2, [r3, #20]
        //      1
    }
}
 8003984:	bd10      	pop	{r4, pc}
            flagEnterButtonDown = false;
 8003986:	2400      	movs	r4, #0
 8003988:	7004      	strb	r4, [r0, #0]
            CLEAR_BIT(EXTI->RTSR, EXTI_RTSR_RT1);
 800398a:	6898      	ldr	r0, [r3, #8]
 800398c:	4390      	bics	r0, r2
 800398e:	6098      	str	r0, [r3, #8]
            SET_BIT(EXTI->FTSR, EXTI_FTSR_FT1);
 8003990:	68d8      	ldr	r0, [r3, #12]
 8003992:	4302      	orrs	r2, r0
 8003994:	60da      	str	r2, [r3, #12]
            if (SysTimer_ms - timeEnterButtonDown > 4 * menu[29].value)
 8003996:	680a      	ldr	r2, [r1, #0]
 8003998:	212a      	movs	r1, #42	@ 0x2a
 800399a:	4b20      	ldr	r3, [pc, #128]	@ (8003a1c <EXTI0_1_IRQHandler+0x110>)
 800399c:	31ff      	adds	r1, #255	@ 0xff
 800399e:	881b      	ldrh	r3, [r3, #0]
 80039a0:	1ad2      	subs	r2, r2, r3
 80039a2:	4b1f      	ldr	r3, [pc, #124]	@ (8003a20 <EXTI0_1_IRQHandler+0x114>)
 80039a4:	5c5b      	ldrb	r3, [r3, r1]
 80039a6:	009b      	lsls	r3, r3, #2
 80039a8:	429a      	cmp	r2, r3
 80039aa:	d922      	bls.n	80039f2 <EXTI0_1_IRQHandler+0xe6>
                flagEnterButtonLong = true;
 80039ac:	2201      	movs	r2, #1
                flagEnterButton = false;
 80039ae:	4b1d      	ldr	r3, [pc, #116]	@ (8003a24 <EXTI0_1_IRQHandler+0x118>)
 80039b0:	701c      	strb	r4, [r3, #0]
                flagEnterButtonLong = true;
 80039b2:	4b1d      	ldr	r3, [pc, #116]	@ (8003a28 <EXTI0_1_IRQHandler+0x11c>)
 80039b4:	701a      	strb	r2, [r3, #0]
 80039b6:	e7e2      	b.n	800397e <EXTI0_1_IRQHandler+0x72>
            flagDecrementButtonDown = false;
 80039b8:	2400      	movs	r4, #0
 80039ba:	7004      	strb	r4, [r0, #0]
            CLEAR_BIT(EXTI->RTSR, EXTI_RTSR_RT0);
 80039bc:	6898      	ldr	r0, [r3, #8]
 80039be:	4390      	bics	r0, r2
 80039c0:	6098      	str	r0, [r3, #8]
            SET_BIT(EXTI->FTSR, EXTI_FTSR_FT0);
 80039c2:	68d8      	ldr	r0, [r3, #12]
 80039c4:	4310      	orrs	r0, r2
 80039c6:	60d8      	str	r0, [r3, #12]
            if (SysTimer_ms - timeDecrementButtonDown > 4 * menu[29].value)
 80039c8:	202a      	movs	r0, #42	@ 0x2a
 80039ca:	4b11      	ldr	r3, [pc, #68]	@ (8003a10 <EXTI0_1_IRQHandler+0x104>)
 80039cc:	6809      	ldr	r1, [r1, #0]
 80039ce:	881b      	ldrh	r3, [r3, #0]
 80039d0:	30ff      	adds	r0, #255	@ 0xff
 80039d2:	1ac9      	subs	r1, r1, r3
 80039d4:	4b12      	ldr	r3, [pc, #72]	@ (8003a20 <EXTI0_1_IRQHandler+0x114>)
 80039d6:	5c1b      	ldrb	r3, [r3, r0]
 80039d8:	009b      	lsls	r3, r3, #2
 80039da:	4299      	cmp	r1, r3
 80039dc:	d904      	bls.n	80039e8 <EXTI0_1_IRQHandler+0xdc>
                flagDecrementButton = false;
 80039de:	4b13      	ldr	r3, [pc, #76]	@ (8003a2c <EXTI0_1_IRQHandler+0x120>)
 80039e0:	701c      	strb	r4, [r3, #0]
                flagDecrementButtonLong = true;
 80039e2:	4b13      	ldr	r3, [pc, #76]	@ (8003a30 <EXTI0_1_IRQHandler+0x124>)
 80039e4:	701a      	strb	r2, [r3, #0]
 80039e6:	e7ac      	b.n	8003942 <EXTI0_1_IRQHandler+0x36>
                flagDecrementButtonLong = false;
 80039e8:	4b11      	ldr	r3, [pc, #68]	@ (8003a30 <EXTI0_1_IRQHandler+0x124>)
 80039ea:	701c      	strb	r4, [r3, #0]
                flagDecrementButton = true;
 80039ec:	4b0f      	ldr	r3, [pc, #60]	@ (8003a2c <EXTI0_1_IRQHandler+0x120>)
 80039ee:	701a      	strb	r2, [r3, #0]
 80039f0:	e7a7      	b.n	8003942 <EXTI0_1_IRQHandler+0x36>
                flagEnterButton = true;
 80039f2:	2201      	movs	r2, #1
                flagEnterButtonLong = false;
 80039f4:	4b0c      	ldr	r3, [pc, #48]	@ (8003a28 <EXTI0_1_IRQHandler+0x11c>)
 80039f6:	701c      	strb	r4, [r3, #0]
                flagEnterButton = true;
 80039f8:	4b0a      	ldr	r3, [pc, #40]	@ (8003a24 <EXTI0_1_IRQHandler+0x118>)
 80039fa:	701a      	strb	r2, [r3, #0]
 80039fc:	e7bf      	b.n	800397e <EXTI0_1_IRQHandler+0x72>
 80039fe:	46c0      	nop			@ (mov r8, r8)
 8003a00:	40010400 	.word	0x40010400
 8003a04:	200001cc 	.word	0x200001cc
 8003a08:	200001b8 	.word	0x200001b8
 8003a0c:	200001c8 	.word	0x200001c8
 8003a10:	200001d2 	.word	0x200001d2
 8003a14:	200001ca 	.word	0x200001ca
 8003a18:	200001c7 	.word	0x200001c7
 8003a1c:	200001d0 	.word	0x200001d0
 8003a20:	20000000 	.word	0x20000000
 8003a24:	200001c4 	.word	0x200001c4
 8003a28:	200001c1 	.word	0x200001c1
 8003a2c:	200001c5 	.word	0x200001c5
 8003a30:	200001c2 	.word	0x200001c2

08003a34 <EXTI2_3_IRQHandler>:
void EXTI2_3_IRQHandler(void)
{
    //     EXTI2  EXTI3

    // ,      EXTI2
    if (EXTI->PR & EXTI_PR_PR2)
 8003a34:	2204      	movs	r2, #4
 8003a36:	4b1f      	ldr	r3, [pc, #124]	@ (8003ab4 <EXTI2_3_IRQHandler+0x80>)
{
 8003a38:	b510      	push	{r4, lr}
    if (EXTI->PR & EXTI_PR_PR2)
 8003a3a:	6959      	ldr	r1, [r3, #20]
 8003a3c:	420a      	tst	r2, r1
 8003a3e:	d018      	beq.n	8003a72 <EXTI2_3_IRQHandler+0x3e>
    {
        //     ,    
        CLEAR_BIT(EXTI->IMR, EXTI_IMR_IM2);
 8003a40:	6819      	ldr	r1, [r3, #0]
        IncrementButtonDebounce = SysTimer_ms;
 8003a42:	481d      	ldr	r0, [pc, #116]	@ (8003ab8 <EXTI2_3_IRQHandler+0x84>)
        CLEAR_BIT(EXTI->IMR, EXTI_IMR_IM2);
 8003a44:	4391      	bics	r1, r2
 8003a46:	6019      	str	r1, [r3, #0]
        IncrementButtonDebounce = SysTimer_ms;
 8003a48:	491c      	ldr	r1, [pc, #112]	@ (8003abc <EXTI2_3_IRQHandler+0x88>)
 8003a4a:	680c      	ldr	r4, [r1, #0]
 8003a4c:	8004      	strh	r4, [r0, #0]
        //   debounce  IncrementButton

        if (!flagIncrementButtonDown)
 8003a4e:	481c      	ldr	r0, [pc, #112]	@ (8003ac0 <EXTI2_3_IRQHandler+0x8c>)
 8003a50:	7804      	ldrb	r4, [r0, #0]
 8003a52:	2c00      	cmp	r4, #0
 8003a54:	d10e      	bne.n	8003a74 <EXTI2_3_IRQHandler+0x40>
        {
            //  
            timeIncrementButtonDown = SysTimer_ms;
 8003a56:	680c      	ldr	r4, [r1, #0]
 8003a58:	491a      	ldr	r1, [pc, #104]	@ (8003ac4 <EXTI2_3_IRQHandler+0x90>)
 8003a5a:	800c      	strh	r4, [r1, #0]
            //     Increment

            flagIncrementButtonDown = true;
 8003a5c:	2101      	movs	r1, #1
 8003a5e:	7001      	strb	r1, [r0, #0]
            //     Increment

            //        
            CLEAR_BIT(EXTI->FTSR, EXTI_FTSR_FT2); //     
 8003a60:	68d9      	ldr	r1, [r3, #12]
 8003a62:	4391      	bics	r1, r2
 8003a64:	60d9      	str	r1, [r3, #12]
            SET_BIT(EXTI->RTSR, EXTI_RTSR_RT2);   //     
 8003a66:	6899      	ldr	r1, [r3, #8]
 8003a68:	430a      	orrs	r2, r1
 8003a6a:	609a      	str	r2, [r3, #8]
                flagIncrementButton = true;
                flagIncrementButtonLong = false;
            }
        }
        //   EXTI2
        EXTI->PR = EXTI_PR_PR2;
 8003a6c:	2204      	movs	r2, #4
 8003a6e:	4b11      	ldr	r3, [pc, #68]	@ (8003ab4 <EXTI2_3_IRQHandler+0x80>)
 8003a70:	615a      	str	r2, [r3, #20]
    }
}
 8003a72:	bd10      	pop	{r4, pc}
            flagIncrementButtonDown = false;
 8003a74:	2400      	movs	r4, #0
 8003a76:	7004      	strb	r4, [r0, #0]
            CLEAR_BIT(EXTI->RTSR, EXTI_RTSR_RT2); //     
 8003a78:	6898      	ldr	r0, [r3, #8]
 8003a7a:	4390      	bics	r0, r2
 8003a7c:	6098      	str	r0, [r3, #8]
            SET_BIT(EXTI->FTSR, EXTI_FTSR_FT2);   //     
 8003a7e:	68d8      	ldr	r0, [r3, #12]
 8003a80:	4302      	orrs	r2, r0
 8003a82:	60da      	str	r2, [r3, #12]
            if (SysTimer_ms - timeIncrementButtonDown > 4 * menu[29].value)
 8003a84:	680a      	ldr	r2, [r1, #0]
 8003a86:	212a      	movs	r1, #42	@ 0x2a
 8003a88:	4b0e      	ldr	r3, [pc, #56]	@ (8003ac4 <EXTI2_3_IRQHandler+0x90>)
 8003a8a:	31ff      	adds	r1, #255	@ 0xff
 8003a8c:	881b      	ldrh	r3, [r3, #0]
 8003a8e:	1ad2      	subs	r2, r2, r3
 8003a90:	4b0d      	ldr	r3, [pc, #52]	@ (8003ac8 <EXTI2_3_IRQHandler+0x94>)
 8003a92:	5c5b      	ldrb	r3, [r3, r1]
 8003a94:	009b      	lsls	r3, r3, #2
 8003a96:	429a      	cmp	r2, r3
 8003a98:	d905      	bls.n	8003aa6 <EXTI2_3_IRQHandler+0x72>
                flagIncrementButtonLong = true;
 8003a9a:	2201      	movs	r2, #1
 8003a9c:	4b0b      	ldr	r3, [pc, #44]	@ (8003acc <EXTI2_3_IRQHandler+0x98>)
 8003a9e:	701a      	strb	r2, [r3, #0]
                flagIncrementButton = false;
 8003aa0:	4b0b      	ldr	r3, [pc, #44]	@ (8003ad0 <EXTI2_3_IRQHandler+0x9c>)
 8003aa2:	701c      	strb	r4, [r3, #0]
 8003aa4:	e7e2      	b.n	8003a6c <EXTI2_3_IRQHandler+0x38>
                flagIncrementButton = true;
 8003aa6:	2201      	movs	r2, #1
 8003aa8:	4b09      	ldr	r3, [pc, #36]	@ (8003ad0 <EXTI2_3_IRQHandler+0x9c>)
 8003aaa:	701a      	strb	r2, [r3, #0]
                flagIncrementButtonLong = false;
 8003aac:	4b07      	ldr	r3, [pc, #28]	@ (8003acc <EXTI2_3_IRQHandler+0x98>)
 8003aae:	701c      	strb	r4, [r3, #0]
 8003ab0:	e7dc      	b.n	8003a6c <EXTI2_3_IRQHandler+0x38>
 8003ab2:	46c0      	nop			@ (mov r8, r8)
 8003ab4:	40010400 	.word	0x40010400
 8003ab8:	200001ce 	.word	0x200001ce
 8003abc:	200001b8 	.word	0x200001b8
 8003ac0:	200001c9 	.word	0x200001c9
 8003ac4:	200001d4 	.word	0x200001d4
 8003ac8:	20000000 	.word	0x20000000
 8003acc:	200001c3 	.word	0x200001c3
 8003ad0:	200001c6 	.word	0x200001c6

08003ad4 <EXTI4_15_IRQHandler>:
void EXTI4_15_IRQHandler(void)
{
    //     EXTI4 - EXTI15

    // ,      EXTI9
    if (EXTI->PR & EXTI_PR_PR9)
 8003ad4:	2280      	movs	r2, #128	@ 0x80
 8003ad6:	4b13      	ldr	r3, [pc, #76]	@ (8003b24 <EXTI4_15_IRQHandler+0x50>)
 8003ad8:	0092      	lsls	r2, r2, #2
 8003ada:	6959      	ldr	r1, [r3, #20]
 8003adc:	4211      	tst	r1, r2
 8003ade:	d017      	beq.n	8003b10 <EXTI4_15_IRQHandler+0x3c>
    {
        //     EXTI9
        EXTI->IMR &= ~EXTI_IMR_IM9;
 8003ae0:	6819      	ldr	r1, [r3, #0]
 8003ae2:	4811      	ldr	r0, [pc, #68]	@ (8003b28 <EXTI4_15_IRQHandler+0x54>)
 8003ae4:	4001      	ands	r1, r0
 8003ae6:	6019      	str	r1, [r3, #0]

        //    9 (,   0  )
        if (BUTTON_PRESSED(9, GPIOB) == 0)
 8003ae8:	4910      	ldr	r1, [pc, #64]	@ (8003b2c <EXTI4_15_IRQHandler+0x58>)
 8003aea:	6909      	ldr	r1, [r1, #16]
 8003aec:	4211      	tst	r1, r2
 8003aee:	d010      	beq.n	8003b12 <EXTI4_15_IRQHandler+0x3e>
        { //   1 ( )
            //      
            LowPowerMode(EXIT);

            //      (   0)
            EXTI->FTSR |= EXTI_FTSR_FT9;  //     
 8003af0:	68d9      	ldr	r1, [r3, #12]
 8003af2:	430a      	orrs	r2, r1
 8003af4:	60da      	str	r2, [r3, #12]
            EXTI->RTSR &= ~EXTI_RTSR_RT9; //     
 8003af6:	689a      	ldr	r2, [r3, #8]
 8003af8:	4002      	ands	r2, r0
 8003afa:	609a      	str	r2, [r3, #8]
        lowpowerModeStatus = false;
 8003afc:	2200      	movs	r2, #0
 8003afe:	4b0c      	ldr	r3, [pc, #48]	@ (8003b30 <EXTI4_15_IRQHandler+0x5c>)
 8003b00:	701a      	strb	r2, [r3, #0]
        }

        //      EXTI9
        EXTI->PR = EXTI_PR_PR9;
 8003b02:	2380      	movs	r3, #128	@ 0x80
 8003b04:	4a07      	ldr	r2, [pc, #28]	@ (8003b24 <EXTI4_15_IRQHandler+0x50>)
 8003b06:	009b      	lsls	r3, r3, #2
 8003b08:	6153      	str	r3, [r2, #20]

        //    
        EXTI->IMR |= EXTI_IMR_IM9;
 8003b0a:	6811      	ldr	r1, [r2, #0]
 8003b0c:	430b      	orrs	r3, r1
 8003b0e:	6013      	str	r3, [r2, #0]
    }
}
 8003b10:	4770      	bx	lr
            EXTI->RTSR |= EXTI_RTSR_RT9;  //     
 8003b12:	6899      	ldr	r1, [r3, #8]
 8003b14:	430a      	orrs	r2, r1
 8003b16:	609a      	str	r2, [r3, #8]
            EXTI->FTSR &= ~EXTI_FTSR_FT9; //     
 8003b18:	68da      	ldr	r2, [r3, #12]
 8003b1a:	4002      	ands	r2, r0
 8003b1c:	60da      	str	r2, [r3, #12]
        lowpowerModeStatus = true;
 8003b1e:	2201      	movs	r2, #1
 8003b20:	e7ed      	b.n	8003afe <EXTI4_15_IRQHandler+0x2a>
 8003b22:	46c0      	nop			@ (mov r8, r8)
 8003b24:	40010400 	.word	0x40010400
 8003b28:	fffffdff 	.word	0xfffffdff
 8003b2c:	50000400 	.word	0x50000400
 8003b30:	200001bf 	.word	0x200001bf

08003b34 <TIM21_IRQHandler>:
}
*/
void TIM21_IRQHandler(void)
{
    //     21
    if (READ_BIT(TIM21->SR, TIM_SR_UIF))
 8003b34:	2201      	movs	r2, #1
 8003b36:	4b04      	ldr	r3, [pc, #16]	@ (8003b48 <TIM21_IRQHandler+0x14>)
 8003b38:	6919      	ldr	r1, [r3, #16]
 8003b3a:	420a      	tst	r2, r1
 8003b3c:	d002      	beq.n	8003b44 <TIM21_IRQHandler+0x10>
        CLEAR_BIT(TIM21->SR, TIM_SR_UIF);
 8003b3e:	6919      	ldr	r1, [r3, #16]
 8003b40:	4391      	bics	r1, r2
 8003b42:	6119      	str	r1, [r3, #16]
    //    ,  
}
 8003b44:	4770      	bx	lr
 8003b46:	46c0      	nop			@ (mov r8, r8)
 8003b48:	40010800 	.word	0x40010800

08003b4c <SystemInit>:
{
  /* Configure the Vector Table location add offset address ------------------*/
#if defined (USER_VECT_TAB_ADDRESS)
  SCB->VTOR = VECT_TAB_BASE_ADDRESS | VECT_TAB_OFFSET; /* Vector Table Relocation in Internal SRAM */
#endif /* USER_VECT_TAB_ADDRESS */
}
 8003b4c:	4770      	bx	lr
 8003b4e:	46c0      	nop			@ (mov r8, r8)

08003b50 <Reset_Handler>:

    .section  .text.Reset_Handler
  .weak  Reset_Handler
  .type  Reset_Handler, %function
Reset_Handler:  
   ldr   r0, =_estack
 8003b50:	4813      	ldr	r0, [pc, #76]	@ (8003ba0 <LoopForever+0x2>)
   mov   sp, r0          /* set stack pointer */
 8003b52:	4685      	mov	sp, r0
   
/* Call the clock system initialization function.*/
  bl  SystemInit
 8003b54:	f7ff fffa 	bl	8003b4c <SystemInit>

/*Check if boot space corresponds to system memory*/

    LDR R0,=0x00000004
 8003b58:	4812      	ldr	r0, [pc, #72]	@ (8003ba4 <LoopForever+0x6>)
    LDR R1, [R0]
 8003b5a:	6801      	ldr	r1, [r0, #0]
    LSRS R1, R1, #24
 8003b5c:	0e09      	lsrs	r1, r1, #24
    LDR R2,=0x1F
 8003b5e:	4a12      	ldr	r2, [pc, #72]	@ (8003ba8 <LoopForever+0xa>)
    CMP R1, R2
 8003b60:	4291      	cmp	r1, r2
    BNE ApplicationStart
 8003b62:	d105      	bne.n	8003b70 <ApplicationStart>

 /*SYSCFG clock enable*/
    LDR R0,=0x40021034
 8003b64:	4811      	ldr	r0, [pc, #68]	@ (8003bac <LoopForever+0xe>)
    LDR R1,=0x00000001
 8003b66:	4912      	ldr	r1, [pc, #72]	@ (8003bb0 <LoopForever+0x12>)
    STR R1, [R0]
 8003b68:	6001      	str	r1, [r0, #0]

/*Set CFGR1 register with flash memory remap at address 0*/
    LDR R0,=0x40010000
 8003b6a:	4812      	ldr	r0, [pc, #72]	@ (8003bb4 <LoopForever+0x16>)
    LDR R1,=0x00000000
 8003b6c:	4912      	ldr	r1, [pc, #72]	@ (8003bb8 <LoopForever+0x1a>)
    STR R1, [R0]
 8003b6e:	6001      	str	r1, [r0, #0]

08003b70 <ApplicationStart>:

ApplicationStart:
/* Copy the data segment initializers from flash to SRAM */
  ldr r0, =_sdata
 8003b70:	4812      	ldr	r0, [pc, #72]	@ (8003bbc <LoopForever+0x1e>)
  ldr r1, =_edata
 8003b72:	4913      	ldr	r1, [pc, #76]	@ (8003bc0 <LoopForever+0x22>)
  ldr r2, =_sidata
 8003b74:	4a13      	ldr	r2, [pc, #76]	@ (8003bc4 <LoopForever+0x26>)
  movs r3, #0
 8003b76:	2300      	movs	r3, #0
  b LoopCopyDataInit
 8003b78:	e002      	b.n	8003b80 <LoopCopyDataInit>

08003b7a <CopyDataInit>:

CopyDataInit:
  ldr r4, [r2, r3]
 8003b7a:	58d4      	ldr	r4, [r2, r3]
  str r4, [r0, r3]
 8003b7c:	50c4      	str	r4, [r0, r3]
  adds r3, r3, #4
 8003b7e:	3304      	adds	r3, #4

08003b80 <LoopCopyDataInit>:

LoopCopyDataInit:
  adds r4, r0, r3
 8003b80:	18c4      	adds	r4, r0, r3
  cmp r4, r1
 8003b82:	428c      	cmp	r4, r1
  bcc CopyDataInit
 8003b84:	d3f9      	bcc.n	8003b7a <CopyDataInit>
  
/* Zero fill the bss segment. */
  ldr r2, =_sbss
 8003b86:	4a10      	ldr	r2, [pc, #64]	@ (8003bc8 <LoopForever+0x2a>)
  ldr r4, =_ebss
 8003b88:	4c10      	ldr	r4, [pc, #64]	@ (8003bcc <LoopForever+0x2e>)
  movs r3, #0
 8003b8a:	2300      	movs	r3, #0
  b LoopFillZerobss
 8003b8c:	e001      	b.n	8003b92 <LoopFillZerobss>

08003b8e <FillZerobss>:

FillZerobss:
  str  r3, [r2]
 8003b8e:	6013      	str	r3, [r2, #0]
  adds r2, r2, #4
 8003b90:	3204      	adds	r2, #4

08003b92 <LoopFillZerobss>:

LoopFillZerobss:
  cmp r2, r4
 8003b92:	42a2      	cmp	r2, r4
  bcc FillZerobss
 8003b94:	d3fb      	bcc.n	8003b8e <FillZerobss>

/* Call static constructors */
    bl __libc_init_array
 8003b96:	f000 f837 	bl	8003c08 <__libc_init_array>
/* Call the application's entry point.*/
  bl  main
 8003b9a:	f7ff fdc3 	bl	8003724 <main>

08003b9e <LoopForever>:

LoopForever:
    b LoopForever
 8003b9e:	e7fe      	b.n	8003b9e <LoopForever>
   ldr   r0, =_estack
 8003ba0:	20000800 	.word	0x20000800
    LDR R0,=0x00000004
 8003ba4:	00000004 	.word	0x00000004
    LDR R2,=0x1F
 8003ba8:	0000001f 	.word	0x0000001f
    LDR R0,=0x40021034
 8003bac:	40021034 	.word	0x40021034
    LDR R1,=0x00000001
 8003bb0:	00000001 	.word	0x00000001
    LDR R0,=0x40010000
 8003bb4:	40010000 	.word	0x40010000
    LDR R1,=0x00000000
 8003bb8:	00000000 	.word	0x00000000
  ldr r0, =_sdata
 8003bbc:	20000000 	.word	0x20000000
  ldr r1, =_edata
 8003bc0:	20000188 	.word	0x20000188
  ldr r2, =_sidata
 8003bc4:	08003e10 	.word	0x08003e10
  ldr r2, =_sbss
 8003bc8:	20000188 	.word	0x20000188
  ldr r4, =_ebss
 8003bcc:	20000318 	.word	0x20000318

08003bd0 <ADC1_IRQHandler>:
 * @retval : None
*/
    .section  .text.Default_Handler,"ax",%progbits
Default_Handler:
Infinite_Loop:
  b  Infinite_Loop
 8003bd0:	e7fe      	b.n	8003bd0 <ADC1_IRQHandler>
	...

08003bd4 <free>:
 8003bd4:	b510      	push	{r4, lr}
 8003bd6:	4b03      	ldr	r3, [pc, #12]	@ (8003be4 <free+0x10>)
 8003bd8:	0001      	movs	r1, r0
 8003bda:	6818      	ldr	r0, [r3, #0]
 8003bdc:	f000 f83a 	bl	8003c54 <_free_r>
 8003be0:	bd10      	pop	{r4, pc}
 8003be2:	46c0      	nop			@ (mov r8, r8)
 8003be4:	20000138 	.word	0x20000138

08003be8 <__malloc_lock>:
 8003be8:	b510      	push	{r4, lr}
 8003bea:	4802      	ldr	r0, [pc, #8]	@ (8003bf4 <__malloc_lock+0xc>)
 8003bec:	f000 f830 	bl	8003c50 <__retarget_lock_acquire_recursive>
 8003bf0:	bd10      	pop	{r4, pc}
 8003bf2:	46c0      	nop			@ (mov r8, r8)
 8003bf4:	20000314 	.word	0x20000314

08003bf8 <__malloc_unlock>:
 8003bf8:	b510      	push	{r4, lr}
 8003bfa:	4802      	ldr	r0, [pc, #8]	@ (8003c04 <__malloc_unlock+0xc>)
 8003bfc:	f000 f829 	bl	8003c52 <__retarget_lock_release_recursive>
 8003c00:	bd10      	pop	{r4, pc}
 8003c02:	46c0      	nop			@ (mov r8, r8)
 8003c04:	20000314 	.word	0x20000314

08003c08 <__libc_init_array>:
 8003c08:	b570      	push	{r4, r5, r6, lr}
 8003c0a:	2600      	movs	r6, #0
 8003c0c:	4c0c      	ldr	r4, [pc, #48]	@ (8003c40 <__libc_init_array+0x38>)
 8003c0e:	4d0d      	ldr	r5, [pc, #52]	@ (8003c44 <__libc_init_array+0x3c>)
 8003c10:	1b64      	subs	r4, r4, r5
 8003c12:	10a4      	asrs	r4, r4, #2
 8003c14:	42a6      	cmp	r6, r4
 8003c16:	d109      	bne.n	8003c2c <__libc_init_array+0x24>
 8003c18:	2600      	movs	r6, #0
 8003c1a:	f000 f865 	bl	8003ce8 <_init>
 8003c1e:	4c0a      	ldr	r4, [pc, #40]	@ (8003c48 <__libc_init_array+0x40>)
 8003c20:	4d0a      	ldr	r5, [pc, #40]	@ (8003c4c <__libc_init_array+0x44>)
 8003c22:	1b64      	subs	r4, r4, r5
 8003c24:	10a4      	asrs	r4, r4, #2
 8003c26:	42a6      	cmp	r6, r4
 8003c28:	d105      	bne.n	8003c36 <__libc_init_array+0x2e>
 8003c2a:	bd70      	pop	{r4, r5, r6, pc}
 8003c2c:	00b3      	lsls	r3, r6, #2
 8003c2e:	58eb      	ldr	r3, [r5, r3]
 8003c30:	4798      	blx	r3
 8003c32:	3601      	adds	r6, #1
 8003c34:	e7ee      	b.n	8003c14 <__libc_init_array+0xc>
 8003c36:	00b3      	lsls	r3, r6, #2
 8003c38:	58eb      	ldr	r3, [r5, r3]
 8003c3a:	4798      	blx	r3
 8003c3c:	3601      	adds	r6, #1
 8003c3e:	e7f2      	b.n	8003c26 <__libc_init_array+0x1e>
 8003c40:	08003e08 	.word	0x08003e08
 8003c44:	08003e08 	.word	0x08003e08
 8003c48:	08003e0c 	.word	0x08003e0c
 8003c4c:	08003e08 	.word	0x08003e08

08003c50 <__retarget_lock_acquire_recursive>:
 8003c50:	4770      	bx	lr

08003c52 <__retarget_lock_release_recursive>:
 8003c52:	4770      	bx	lr

08003c54 <_free_r>:
 8003c54:	b570      	push	{r4, r5, r6, lr}
 8003c56:	0005      	movs	r5, r0
 8003c58:	1e0c      	subs	r4, r1, #0
 8003c5a:	d010      	beq.n	8003c7e <_free_r+0x2a>
 8003c5c:	3c04      	subs	r4, #4
 8003c5e:	6823      	ldr	r3, [r4, #0]
 8003c60:	2b00      	cmp	r3, #0
 8003c62:	da00      	bge.n	8003c66 <_free_r+0x12>
 8003c64:	18e4      	adds	r4, r4, r3
 8003c66:	0028      	movs	r0, r5
 8003c68:	f7ff ffbe 	bl	8003be8 <__malloc_lock>
 8003c6c:	4a1d      	ldr	r2, [pc, #116]	@ (8003ce4 <_free_r+0x90>)
 8003c6e:	6813      	ldr	r3, [r2, #0]
 8003c70:	2b00      	cmp	r3, #0
 8003c72:	d105      	bne.n	8003c80 <_free_r+0x2c>
 8003c74:	6063      	str	r3, [r4, #4]
 8003c76:	6014      	str	r4, [r2, #0]
 8003c78:	0028      	movs	r0, r5
 8003c7a:	f7ff ffbd 	bl	8003bf8 <__malloc_unlock>
 8003c7e:	bd70      	pop	{r4, r5, r6, pc}
 8003c80:	42a3      	cmp	r3, r4
 8003c82:	d908      	bls.n	8003c96 <_free_r+0x42>
 8003c84:	6820      	ldr	r0, [r4, #0]
 8003c86:	1821      	adds	r1, r4, r0
 8003c88:	428b      	cmp	r3, r1
 8003c8a:	d1f3      	bne.n	8003c74 <_free_r+0x20>
 8003c8c:	6819      	ldr	r1, [r3, #0]
 8003c8e:	685b      	ldr	r3, [r3, #4]
 8003c90:	1809      	adds	r1, r1, r0
 8003c92:	6021      	str	r1, [r4, #0]
 8003c94:	e7ee      	b.n	8003c74 <_free_r+0x20>
 8003c96:	001a      	movs	r2, r3
 8003c98:	685b      	ldr	r3, [r3, #4]
 8003c9a:	2b00      	cmp	r3, #0
 8003c9c:	d001      	beq.n	8003ca2 <_free_r+0x4e>
 8003c9e:	42a3      	cmp	r3, r4
 8003ca0:	d9f9      	bls.n	8003c96 <_free_r+0x42>
 8003ca2:	6811      	ldr	r1, [r2, #0]
 8003ca4:	1850      	adds	r0, r2, r1
 8003ca6:	42a0      	cmp	r0, r4
 8003ca8:	d10b      	bne.n	8003cc2 <_free_r+0x6e>
 8003caa:	6820      	ldr	r0, [r4, #0]
 8003cac:	1809      	adds	r1, r1, r0
 8003cae:	1850      	adds	r0, r2, r1
 8003cb0:	6011      	str	r1, [r2, #0]
 8003cb2:	4283      	cmp	r3, r0
 8003cb4:	d1e0      	bne.n	8003c78 <_free_r+0x24>
 8003cb6:	6818      	ldr	r0, [r3, #0]
 8003cb8:	685b      	ldr	r3, [r3, #4]
 8003cba:	1841      	adds	r1, r0, r1
 8003cbc:	6011      	str	r1, [r2, #0]
 8003cbe:	6053      	str	r3, [r2, #4]
 8003cc0:	e7da      	b.n	8003c78 <_free_r+0x24>
 8003cc2:	42a0      	cmp	r0, r4
 8003cc4:	d902      	bls.n	8003ccc <_free_r+0x78>
 8003cc6:	230c      	movs	r3, #12
 8003cc8:	602b      	str	r3, [r5, #0]
 8003cca:	e7d5      	b.n	8003c78 <_free_r+0x24>
 8003ccc:	6820      	ldr	r0, [r4, #0]
 8003cce:	1821      	adds	r1, r4, r0
 8003cd0:	428b      	cmp	r3, r1
 8003cd2:	d103      	bne.n	8003cdc <_free_r+0x88>
 8003cd4:	6819      	ldr	r1, [r3, #0]
 8003cd6:	685b      	ldr	r3, [r3, #4]
 8003cd8:	1809      	adds	r1, r1, r0
 8003cda:	6021      	str	r1, [r4, #0]
 8003cdc:	6063      	str	r3, [r4, #4]
 8003cde:	6054      	str	r4, [r2, #4]
 8003ce0:	e7ca      	b.n	8003c78 <_free_r+0x24>
 8003ce2:	46c0      	nop			@ (mov r8, r8)
 8003ce4:	200001d8 	.word	0x200001d8

08003ce8 <_init>:
 8003ce8:	b5f8      	push	{r3, r4, r5, r6, r7, lr}
 8003cea:	46c0      	nop			@ (mov r8, r8)
 8003cec:	bcf8      	pop	{r3, r4, r5, r6, r7}
 8003cee:	bc08      	pop	{r3}
 8003cf0:	469e      	mov	lr, r3
 8003cf2:	4770      	bx	lr

08003cf4 <_fini>:
 8003cf4:	b5f8      	push	{r3, r4, r5, r6, r7, lr}
 8003cf6:	46c0      	nop			@ (mov r8, r8)
 8003cf8:	bcf8      	pop	{r3, r4, r5, r6, r7}
 8003cfa:	bc08      	pop	{r3}
 8003cfc:	469e      	mov	lr, r3
 8003cfe:	4770      	bx	lr
